

Microchip MPLAB XC8 Assembler V2.35 build 20211206165544 
                                                                                               Thu May 26 17:37:05 2022

Microchip MPLAB XC8 C Compiler v2.35 (Free license) build 20211206165544 Og1 
     1                           	processor	16F887
     2                           	pagewidth 120
     3                           	opt	flic
     4                           	psect	cinit,global,class=CODE,merge=1,delta=2
     5                           	psect	bssBANK1,global,class=BANK1,space=1,delta=1,noexec
     6                           	psect	cstackBANK1,global,class=BANK1,space=1,delta=1,noexec
     7                           	psect	cstackCOMMON,global,class=COMMON,space=1,delta=1,noexec
     8                           	psect	cstackBANK0,global,class=BANK0,space=1,delta=1,noexec
     9                           	psect	maintext,global,class=CODE,split=1,delta=2
    10                           	psect	text1,local,class=CODE,merge=1,delta=2
    11                           	psect	text2,local,class=CODE,merge=1,delta=2
    12                           	psect	intentry,global,class=CODE,delta=2
    13                           	psect	text3,local,class=CODE,merge=1,delta=2
    14                           	psect	text4,local,class=CODE,merge=1,delta=2
    15                           	psect	text5,local,class=CODE,merge=1,delta=2
    16                           	psect	text6,local,class=CODE,merge=1,delta=2,group=1
    17                           	psect	text7,local,class=CODE,merge=1,delta=2,group=1
    18                           	psect	text8,local,class=CODE,merge=1,delta=2,group=1
    19                           	psect	text9,local,class=CODE,merge=1,delta=2,group=1
    20                           	psect	text10,local,class=CODE,merge=1,delta=2,group=1
    21                           	psect	text11,local,class=CODE,merge=1,delta=2,group=1
    22                           	psect	idloc,global,abs,ovrld,class=IDLOC,space=5,delta=2,noexec
    23                           	psect	config,global,abs,ovrld,class=CONFIG,space=4,delta=2,noexec
    24                           	dabs	1,0x7E,2
    25  0000                     
    26                           ; Version 2.40
    27                           ; Generated 17/11/2021 GMT
    28                           ; 
    29                           ; Copyright © 2021, Microchip Technology Inc. and its subsidiaries ("Microchip")
    30                           ; All rights reserved.
    31                           ; 
    32                           ; This software is developed by Microchip Technology Inc. and its subsidiaries ("Microch
      +                          ip").
    33                           ; 
    34                           ; Redistribution and use in source and binary forms, with or without modification, are
    35                           ; permitted provided that the following conditions are met:
    36                           ; 
    37                           ;     1. Redistributions of source code must retain the above copyright notice, this lis
      +                          t of
    38                           ;        conditions and the following disclaimer.
    39                           ; 
    40                           ;     2. Redistributions in binary form must reproduce the above copyright notice, this 
      +                          list
    41                           ;        of conditions and the following disclaimer in the documentation and/or other
    42                           ;        materials provided with the distribution. Publication is not required when
    43                           ;        this file is used in an embedded application.
    44                           ; 
    45                           ;     3. Microchip's name may not be used to endorse or promote products derived from th
      +                          is
    46                           ;        software without specific prior written permission.
    47                           ; 
    48                           ; THIS SOFTWARE IS PROVIDED BY MICROCHIP "AS IS" AND ANY EXPRESS OR IMPLIED WARRANTIES,
    49                           ; INCLUDING, BUT NOT LIMITED TO, THE IMPLIED WARRANTIES OF MERCHANTABILITY AND FITNESS F
      +                          OR
    50                           ; PURPOSE ARE DISCLAIMED.  IN NO EVENT SHALL MICROCHIP BE LIABLE FOR ANY DIRECT, INDIREC
      +                          T,
    51                           ; INCIDENTAL, SPECIAL, EXEMPLARY, OR CONSEQUENTIAL DAMAGES (INCLUDING BUT NOT LIMITED TO
    52                           ; PROCUREMENT OF SUBSTITUTE GOODS OR SERVICES; LOSS OF USE, DATA OR PROFITS; OR BUSINESS
    53                           ; INTERRUPTION) HOWSOEVER CAUSED AND ON ANY THEORY OF LIABILITY, WHETHER IN CONTRACT, ST
      +                          RICT
    54                           ; LIABILITY, OR TORT (INCLUDING NEGLIGENCE OR OTHERWISE) ARISING IN ANY WAY OUT OF THE U
      +                          SE OF
    55                           ; THIS SOFTWARE, EVEN IF ADVISED OF THE POSSIBILITY OF SUCH DAMAGE.
    56                           ; 
    57                           ; 
    58                           ; Code-generator required, PIC16F887 Definitions
    59                           ; 
    60                           ; SFR Addresses
    61  0000                     	;# 
    62  0001                     	;# 
    63  0002                     	;# 
    64  0003                     	;# 
    65  0004                     	;# 
    66  0005                     	;# 
    67  0006                     	;# 
    68  0007                     	;# 
    69  0008                     	;# 
    70  0009                     	;# 
    71  000A                     	;# 
    72  000B                     	;# 
    73  000C                     	;# 
    74  000D                     	;# 
    75  000E                     	;# 
    76  000E                     	;# 
    77  000F                     	;# 
    78  0010                     	;# 
    79  0011                     	;# 
    80  0012                     	;# 
    81  0013                     	;# 
    82  0014                     	;# 
    83  0015                     	;# 
    84  0015                     	;# 
    85  0016                     	;# 
    86  0017                     	;# 
    87  0018                     	;# 
    88  0019                     	;# 
    89  001A                     	;# 
    90  001B                     	;# 
    91  001B                     	;# 
    92  001C                     	;# 
    93  001D                     	;# 
    94  001E                     	;# 
    95  001F                     	;# 
    96  0081                     	;# 
    97  0085                     	;# 
    98  0086                     	;# 
    99  0087                     	;# 
   100  0088                     	;# 
   101  0089                     	;# 
   102  008C                     	;# 
   103  008D                     	;# 
   104  008E                     	;# 
   105  008F                     	;# 
   106  0090                     	;# 
   107  0091                     	;# 
   108  0092                     	;# 
   109  0093                     	;# 
   110  0093                     	;# 
   111  0093                     	;# 
   112  0094                     	;# 
   113  0095                     	;# 
   114  0096                     	;# 
   115  0097                     	;# 
   116  0098                     	;# 
   117  0099                     	;# 
   118  009A                     	;# 
   119  009B                     	;# 
   120  009C                     	;# 
   121  009D                     	;# 
   122  009E                     	;# 
   123  009F                     	;# 
   124  0105                     	;# 
   125  0107                     	;# 
   126  0108                     	;# 
   127  0109                     	;# 
   128  010C                     	;# 
   129  010C                     	;# 
   130  010D                     	;# 
   131  010E                     	;# 
   132  010F                     	;# 
   133  0185                     	;# 
   134  0187                     	;# 
   135  0188                     	;# 
   136  0189                     	;# 
   137  018C                     	;# 
   138  018D                     	;# 
   139  0000                     	;# 
   140  0001                     	;# 
   141  0002                     	;# 
   142  0003                     	;# 
   143  0004                     	;# 
   144  0005                     	;# 
   145  0006                     	;# 
   146  0007                     	;# 
   147  0008                     	;# 
   148  0009                     	;# 
   149  000A                     	;# 
   150  000B                     	;# 
   151  000C                     	;# 
   152  000D                     	;# 
   153  000E                     	;# 
   154  000E                     	;# 
   155  000F                     	;# 
   156  0010                     	;# 
   157  0011                     	;# 
   158  0012                     	;# 
   159  0013                     	;# 
   160  0014                     	;# 
   161  0015                     	;# 
   162  0015                     	;# 
   163  0016                     	;# 
   164  0017                     	;# 
   165  0018                     	;# 
   166  0019                     	;# 
   167  001A                     	;# 
   168  001B                     	;# 
   169  001B                     	;# 
   170  001C                     	;# 
   171  001D                     	;# 
   172  001E                     	;# 
   173  001F                     	;# 
   174  0081                     	;# 
   175  0085                     	;# 
   176  0086                     	;# 
   177  0087                     	;# 
   178  0088                     	;# 
   179  0089                     	;# 
   180  008C                     	;# 
   181  008D                     	;# 
   182  008E                     	;# 
   183  008F                     	;# 
   184  0090                     	;# 
   185  0091                     	;# 
   186  0092                     	;# 
   187  0093                     	;# 
   188  0093                     	;# 
   189  0093                     	;# 
   190  0094                     	;# 
   191  0095                     	;# 
   192  0096                     	;# 
   193  0097                     	;# 
   194  0098                     	;# 
   195  0099                     	;# 
   196  009A                     	;# 
   197  009B                     	;# 
   198  009C                     	;# 
   199  009D                     	;# 
   200  009E                     	;# 
   201  009F                     	;# 
   202  0105                     	;# 
   203  0107                     	;# 
   204  0108                     	;# 
   205  0109                     	;# 
   206  010C                     	;# 
   207  010C                     	;# 
   208  010D                     	;# 
   209  010E                     	;# 
   210  010F                     	;# 
   211  0185                     	;# 
   212  0187                     	;# 
   213  0188                     	;# 
   214  0189                     	;# 
   215  018C                     	;# 
   216  018D                     	;# 
   217  000B                     _INTCONbits	set	11
   218  0013                     _SSPBUF	set	19
   219  0014                     _SSPCONbits	set	20
   220  0012                     _T2CONbits	set	18
   221  001B                     _CCPR2L	set	27
   222  0015                     _CCPR1L	set	21
   223  001D                     _CCP2CONbits	set	29
   224  0017                     _CCP1CONbits	set	23
   225  0017                     _CCP1CON	set	23
   226  0007                     _PORTC	set	7
   227  0008                     _PORTD	set	8
   228  0005                     _PORTA	set	5
   229  0008                     _PORTDbits	set	8
   230  001E                     _ADRESH	set	30
   231  001F                     _ADCON0bits	set	31
   232  000C                     _PIR1bits	set	12
   233  008C                     _PIE1bits	set	140
   234  0094                     _SSPSTATbits	set	148
   235  0092                     _PR2	set	146
   236  0087                     _TRISCbits	set	135
   237  009F                     _ADCON1bits	set	159
   238  008F                     _OSCCONbits	set	143
   239  0087                     _TRISC	set	135
   240  0088                     _TRISD	set	136
   241  0085                     _TRISA	set	133
   242  0189                     _ANSELH	set	393
   243  0188                     _ANSEL	set	392
   244                           
   245                           	psect	cinit
   246  0013                     start_initialization:	
   247                           ; #config settings
   248                           
   249  0013                     __initialization:
   250                           
   251                           ; Clear objects allocated to BANK1
   252  0013  1683               	bsf	3,5	;RP0=1, select bank1
   253  0014  1303               	bcf	3,6	;RP1=0, select bank1
   254  0015  01B4               	clrf	__pbssBANK1& (0+127)
   255  0016  01B5               	clrf	(__pbssBANK1+1)& (0+127)
   256  0017  01B6               	clrf	(__pbssBANK1+2)& (0+127)
   257  0018  01B7               	clrf	(__pbssBANK1+3)& (0+127)
   258  0019                     end_of_initialization:	
   259                           ;End of C runtime variable initialization code
   260                           
   261  0019                     __end_of__initialization:
   262  0019  0183               	clrf	3
   263  001A  120A  158A  2C2F   	ljmp	_main	;jump to C main() function
   264                           
   265                           	psect	bssBANK1
   266  00B4                     __pbssBANK1:
   267  00B4                     _CCPR_2:
   268  00B4                     	ds	2
   269  00B6                     _CCPR_1:
   270  00B6                     	ds	2
   271                           
   272                           	psect	cstackBANK1
   273  00A0                     __pcstackBANK1:
   274  00A0                     ??___fltol:
   275                           
   276                           ; 1 bytes @ 0x0
   277  00A0                     	ds	5
   278  00A5                     ?_interpole:
   279  00A5                     interpole@in_min:	
   280                           ; 2 bytes @ 0x5
   281                           
   282                           
   283                           ; 1 bytes @ 0x5
   284  00A5                     	ds	1
   285  00A6                     interpole@in_max:
   286                           
   287                           ; 1 bytes @ 0x6
   288  00A6                     	ds	1
   289  00A7                     interpole@out_min:
   290                           
   291                           ; 2 bytes @ 0x7
   292  00A7                     	ds	2
   293  00A9                     interpole@out_max:
   294                           
   295                           ; 2 bytes @ 0x9
   296  00A9                     	ds	2
   297  00AB                     ?_move_servo:
   298  00AB                     move_servo@CCPR:	
   299                           ; 1 bytes @ 0xB
   300                           
   301                           
   302                           ; 2 bytes @ 0xB
   303  00AB                     	ds	2
   304  00AD                     ??_move_servo:
   305                           
   306                           ; 1 bytes @ 0xD
   307  00AD                     	ds	2
   308  00AF                     ??_isr:
   309                           
   310                           ; 1 bytes @ 0xF
   311  00AF                     	ds	4
   312  00B3                     ??_setup:
   313  00B3                     ??_main:	
   314                           ; 1 bytes @ 0x13
   315                           
   316                           
   317                           ; 1 bytes @ 0x13
   318  00B3                     	ds	1
   319                           
   320                           	psect	cstackCOMMON
   321  0070                     __pcstackCOMMON:
   322  0070                     ?_send_data:
   323  0070                     ?_setup:	
   324                           ; 1 bytes @ 0x0
   325                           
   326  0070                     ?_isr:	
   327                           ; 1 bytes @ 0x0
   328                           
   329  0070                     ?_main:	
   330                           ; 1 bytes @ 0x0
   331                           
   332  0070                     ?__Umul8_16:	
   333                           ; 1 bytes @ 0x0
   334                           
   335  0070                     ?___xxtofl:	
   336                           ; 2 bytes @ 0x0
   337                           
   338  0070                     send_data@slave:	
   339                           ; 4 bytes @ 0x0
   340                           
   341  0070                     __Umul8_16@multiplicand:	
   342                           ; 1 bytes @ 0x0
   343                           
   344  0070                     ___xxtofl@val:	
   345                           ; 1 bytes @ 0x0
   346                           
   347                           
   348                           ; 4 bytes @ 0x0
   349  0070                     	ds	1
   350  0071                     ??_send_data:
   351  0071                     send_data@data:	
   352                           ; 1 bytes @ 0x1
   353                           
   354                           
   355                           ; 1 bytes @ 0x1
   356  0071                     	ds	1
   357  0072                     ??__Umul8_16:
   358                           
   359                           ; 1 bytes @ 0x2
   360  0072                     	ds	2
   361  0074                     ??___xxtofl:
   362  0074                     __Umul8_16@product:	
   363                           ; 1 bytes @ 0x4
   364                           
   365                           
   366                           ; 2 bytes @ 0x4
   367  0074                     	ds	2
   368  0076                     __Umul8_16@word_mpld:
   369                           
   370                           ; 2 bytes @ 0x6
   371  0076                     	ds	2
   372  0078                     __Umul8_16@multiplier:
   373  0078                     ___xxtofl@sign:	
   374                           ; 1 bytes @ 0x8
   375                           
   376                           
   377                           ; 1 bytes @ 0x8
   378  0078                     	ds	1
   379  0079                     ___xxtofl@exp:
   380                           
   381                           ; 1 bytes @ 0x9
   382  0079                     	ds	1
   383  007A                     ___xxtofl@arg:
   384                           
   385                           ; 4 bytes @ 0xA
   386  007A                     	ds	4
   387  007E                     ??_interpole:
   388                           
   389                           	psect	cstackBANK0
   390  0020                     __pcstackBANK0:	
   391                           ; 1 bytes @ 0xE
   392                           
   393  0020                     ?___fldiv:
   394  0020                     ___fldiv@a:	
   395                           ; 4 bytes @ 0x0
   396                           
   397                           
   398                           ; 4 bytes @ 0x0
   399  0020                     	ds	4
   400  0024                     ___fldiv@b:
   401                           
   402                           ; 4 bytes @ 0x4
   403  0024                     	ds	4
   404  0028                     ??___fldiv:
   405                           
   406                           ; 1 bytes @ 0x8
   407  0028                     	ds	5
   408  002D                     ___fldiv@rem:
   409                           
   410                           ; 4 bytes @ 0xD
   411  002D                     	ds	4
   412  0031                     ___fldiv@sign:
   413                           
   414                           ; 1 bytes @ 0x11
   415  0031                     	ds	1
   416  0032                     ___fldiv@new_exp:
   417                           
   418                           ; 2 bytes @ 0x12
   419  0032                     	ds	2
   420  0034                     ___fldiv@grs:
   421                           
   422                           ; 4 bytes @ 0x14
   423  0034                     	ds	4
   424  0038                     ___fldiv@bexp:
   425                           
   426                           ; 1 bytes @ 0x18
   427  0038                     	ds	1
   428  0039                     ___fldiv@aexp:
   429                           
   430                           ; 1 bytes @ 0x19
   431  0039                     	ds	1
   432  003A                     ?___flmul:
   433  003A                     ___flmul@b:	
   434                           ; 4 bytes @ 0x1A
   435                           
   436                           
   437                           ; 4 bytes @ 0x1A
   438  003A                     	ds	4
   439  003E                     ___flmul@a:
   440                           
   441                           ; 4 bytes @ 0x1E
   442  003E                     	ds	4
   443  0042                     ??___flmul:
   444                           
   445                           ; 1 bytes @ 0x22
   446  0042                     	ds	5
   447  0047                     ___flmul@sign:
   448                           
   449                           ; 1 bytes @ 0x27
   450  0047                     	ds	1
   451  0048                     ___flmul@grs:
   452                           
   453                           ; 4 bytes @ 0x28
   454  0048                     	ds	4
   455  004C                     ___flmul@aexp:
   456                           
   457                           ; 1 bytes @ 0x2C
   458  004C                     	ds	1
   459  004D                     ___flmul@bexp:
   460                           
   461                           ; 1 bytes @ 0x2D
   462  004D                     	ds	1
   463  004E                     ___flmul@prod:
   464                           
   465                           ; 4 bytes @ 0x2E
   466  004E                     	ds	4
   467  0052                     ___flmul@temp:
   468                           
   469                           ; 2 bytes @ 0x32
   470  0052                     	ds	2
   471  0054                     ?___fladd:
   472  0054                     ___fladd@b:	
   473                           ; 4 bytes @ 0x34
   474                           
   475                           
   476                           ; 4 bytes @ 0x34
   477  0054                     	ds	4
   478  0058                     ___fladd@a:
   479                           
   480                           ; 4 bytes @ 0x38
   481  0058                     	ds	4
   482  005C                     ??___fladd:
   483                           
   484                           ; 1 bytes @ 0x3C
   485  005C                     	ds	8
   486  0064                     ___fladd@signs:
   487                           
   488                           ; 1 bytes @ 0x44
   489  0064                     	ds	1
   490  0065                     ___fladd@aexp:
   491                           
   492                           ; 1 bytes @ 0x45
   493  0065                     	ds	1
   494  0066                     ___fladd@bexp:
   495                           
   496                           ; 1 bytes @ 0x46
   497  0066                     	ds	1
   498  0067                     ___fladd@grs:
   499                           
   500                           ; 1 bytes @ 0x47
   501  0067                     	ds	1
   502  0068                     ?___fltol:
   503  0068                     ___fltol@f1:	
   504                           ; 4 bytes @ 0x48
   505                           
   506                           
   507                           ; 4 bytes @ 0x48
   508  0068                     	ds	4
   509  006C                     ___fltol@sign1:
   510                           
   511                           ; 1 bytes @ 0x4C
   512  006C                     	ds	1
   513  006D                     ___fltol@exp1:
   514                           
   515                           ; 1 bytes @ 0x4D
   516  006D                     	ds	1
   517  006E                     interpole@value:
   518                           
   519                           ; 1 bytes @ 0x4E
   520  006E                     	ds	1
   521  006F                     move_servo@servo:
   522                           
   523                           ; 1 bytes @ 0x4F
   524  006F                     	ds	1
   525                           
   526                           	psect	maintext
   527  0C2F                     __pmaintext:	
   528 ;;
   529 ;;Main: autosize = 0, tempsize = 1, incstack = 0, save=0
   530 ;;
   531 ;; *************** function _main *****************
   532 ;; Defined at:
   533 ;;		line 94 in file "main_master.c"
   534 ;; Parameters:    Size  Location     Type
   535 ;;		None
   536 ;; Auto vars:     Size  Location     Type
   537 ;;		None
   538 ;; Return value:  Size  Location     Type
   539 ;;                  1    wreg      void 
   540 ;; Registers used:
   541 ;;		wreg, status,2, status,0, pclath, cstack
   542 ;; Tracked objects:
   543 ;;		On entry : B00/0
   544 ;;		On exit  : 0/0
   545 ;;		Unchanged: 0/0
   546 ;; Data sizes:     COMMON   BANK0   BANK1   BANK3   BANK2
   547 ;;      Params:         0       0       0       0       0
   548 ;;      Locals:         0       0       0       0       0
   549 ;;      Temps:          0       0       1       0       0
   550 ;;      Totals:         0       0       1       0       0
   551 ;;Total ram usage:        1 bytes
   552 ;; Hardware stack levels required when called: 6
   553 ;; This function calls:
   554 ;;		_setup
   555 ;; This function is called by:
   556 ;;		Startup code after reset
   557 ;; This function uses a non-reentrant model
   558 ;;
   559                           
   560  0C2F                     _main:	
   561                           ;psect for function _main
   562                           
   563  0C2F                     l2128:	
   564                           ;incstack = 0
   565                           ; Regs used in _main: [wreg+status,2+status,0+pclath+cstack]
   566                           
   567                           
   568                           ;main_master.c: 95:     setup();
   569  0C2F  120A  158A  24F0  120A  158A  	fcall	_setup
   570  0C34                     l2130:
   571                           
   572                           ;main_master.c: 97:         if (ADCON0bits.GO == 0) {
   573  0C34  1283               	bcf	3,5	;RP0=0, select bank0
   574  0C35  1303               	bcf	3,6	;RP1=0, select bank0
   575  0C36  189F               	btfsc	31,1	;volatile
   576  0C37  2C39               	goto	u2991
   577  0C38  2C3A               	goto	u2990
   578  0C39                     u2991:
   579  0C39  2C34               	goto	l2130
   580  0C3A                     u2990:
   581  0C3A                     l2132:
   582                           
   583                           ;main_master.c: 98:         if (ADCON0bits.CHS == 0b0000)
   584  0C3A  0C1F               	rrf	31,w	;volatile
   585  0C3B  1683               	bsf	3,5	;RP0=1, select bank1
   586  0C3C  1303               	bcf	3,6	;RP1=0, select bank1
   587  0C3D  00B3               	movwf	??_main^(0+128)
   588  0C3E  0C33               	rrf	??_main^(0+128),w
   589  0C3F  390F               	andlw	15
   590  0C40  3A00               	xorlw	0
   591  0C41  1D03               	skipz
   592  0C42  2C44               	goto	u3001
   593  0C43  2C45               	goto	u3000
   594  0C44                     u3001:
   595  0C44  2C4C               	goto	l2136
   596  0C45                     u3000:
   597  0C45                     l2134:
   598                           
   599                           ;main_master.c: 99:             ADCON0bits.CHS = 0b0001;
   600  0C45  1283               	bcf	3,5	;RP0=0, select bank0
   601  0C46  1303               	bcf	3,6	;RP1=0, select bank0
   602  0C47  081F               	movf	31,w	;volatile
   603  0C48  39C3               	andlw	-61
   604  0C49  3804               	iorlw	4
   605  0C4A  009F               	movwf	31	;volatile
   606  0C4B  2C78               	goto	l2146
   607  0C4C                     l2136:
   608  0C4C  1283               	bcf	3,5	;RP0=0, select bank0
   609  0C4D  1303               	bcf	3,6	;RP1=0, select bank0
   610  0C4E  0C1F               	rrf	31,w	;volatile
   611  0C4F  1683               	bsf	3,5	;RP0=1, select bank1
   612  0C50  1303               	bcf	3,6	;RP1=0, select bank1
   613  0C51  00B3               	movwf	??_main^(0+128)
   614  0C52  0C33               	rrf	??_main^(0+128),w
   615  0C53  390F               	andlw	15
   616  0C54  3A01               	xorlw	1
   617  0C55  1D03               	skipz
   618  0C56  2C58               	goto	u3011
   619  0C57  2C59               	goto	u3010
   620  0C58                     u3011:
   621  0C58  2C60               	goto	l2140
   622  0C59                     u3010:
   623  0C59                     l2138:
   624                           
   625                           ;main_master.c: 102:             ADCON0bits.CHS = 0b0010;
   626  0C59  1283               	bcf	3,5	;RP0=0, select bank0
   627  0C5A  1303               	bcf	3,6	;RP1=0, select bank0
   628  0C5B  081F               	movf	31,w	;volatile
   629  0C5C  39C3               	andlw	-61
   630  0C5D  3808               	iorlw	8
   631  0C5E  009F               	movwf	31	;volatile
   632  0C5F  2C78               	goto	l2146
   633  0C60                     l2140:
   634  0C60  1283               	bcf	3,5	;RP0=0, select bank0
   635  0C61  1303               	bcf	3,6	;RP1=0, select bank0
   636  0C62  0C1F               	rrf	31,w	;volatile
   637  0C63  1683               	bsf	3,5	;RP0=1, select bank1
   638  0C64  1303               	bcf	3,6	;RP1=0, select bank1
   639  0C65  00B3               	movwf	??_main^(0+128)
   640  0C66  0C33               	rrf	??_main^(0+128),w
   641  0C67  390F               	andlw	15
   642  0C68  3A02               	xorlw	2
   643  0C69  1D03               	skipz
   644  0C6A  2C6C               	goto	u3021
   645  0C6B  2C6D               	goto	u3020
   646  0C6C                     u3021:
   647  0C6C  2C74               	goto	l2144
   648  0C6D                     u3020:
   649  0C6D                     l2142:
   650                           
   651                           ;main_master.c: 105:             ADCON0bits.CHS = 0b0011;
   652  0C6D  1283               	bcf	3,5	;RP0=0, select bank0
   653  0C6E  1303               	bcf	3,6	;RP1=0, select bank0
   654  0C6F  081F               	movf	31,w	;volatile
   655  0C70  39C3               	andlw	-61
   656  0C71  380C               	iorlw	12
   657  0C72  009F               	movwf	31	;volatile
   658  0C73  2C78               	goto	l2146
   659  0C74                     l2144:
   660                           
   661                           ;main_master.c: 108:             ADCON0bits.CHS = 0b0000;
   662  0C74  30C3               	movlw	-61
   663  0C75  1283               	bcf	3,5	;RP0=0, select bank0
   664  0C76  1303               	bcf	3,6	;RP1=0, select bank0
   665  0C77  059F               	andwf	31,f	;volatile
   666  0C78                     l2146:
   667                           
   668                           ;main_master.c: 110:         _delay((unsigned long)((1000)*(500000/4000000.0)));
   669  0C78  3028               	movlw	40
   670  0C79  1683               	bsf	3,5	;RP0=1, select bank1
   671  0C7A  1303               	bcf	3,6	;RP1=0, select bank1
   672  0C7B  00B3               	movwf	??_main^(0+128)
   673  0C7C                     u3037:
   674  0C7C  0BB3               	decfsz	??_main^(0+128),f
   675  0C7D  2C7C               	goto	u3037
   676  0C7E  2C7F               	nop2
   677  0C7F                     l2148:
   678                           
   679                           ;main_master.c: 111:         ADCON0bits.GO = 1;
   680  0C7F  1283               	bcf	3,5	;RP0=0, select bank0
   681  0C80  1303               	bcf	3,6	;RP1=0, select bank0
   682  0C81  149F               	bsf	31,1	;volatile
   683  0C82  2C34               	goto	l2130
   684  0C83  120A  118A  2810   	ljmp	start
   685  0C86                     __end_of_main:
   686                           
   687                           	psect	text1
   688  0CF0                     __ptext1:	
   689 ;; *************** function _setup *****************
   690 ;; Defined at:
   691 ;;		line 120 in file "main_master.c"
   692 ;; Parameters:    Size  Location     Type
   693 ;;		None
   694 ;; Auto vars:     Size  Location     Type
   695 ;;		None
   696 ;; Return value:  Size  Location     Type
   697 ;;                  1    wreg      void 
   698 ;; Registers used:
   699 ;;		wreg, status,2, status,0
   700 ;; Tracked objects:
   701 ;;		On entry : 0/0
   702 ;;		On exit  : 0/0
   703 ;;		Unchanged: 0/0
   704 ;; Data sizes:     COMMON   BANK0   BANK1   BANK3   BANK2
   705 ;;      Params:         0       0       0       0       0
   706 ;;      Locals:         0       0       0       0       0
   707 ;;      Temps:          0       0       0       0       0
   708 ;;      Totals:         0       0       0       0       0
   709 ;;Total ram usage:        0 bytes
   710 ;; Hardware stack levels used: 1
   711 ;; Hardware stack levels required when called: 5
   712 ;; This function calls:
   713 ;;		Nothing
   714 ;; This function is called by:
   715 ;;		_main
   716 ;; This function uses a non-reentrant model
   717 ;;
   718                           
   719  0CF0                     _setup:	
   720                           ;psect for function _setup
   721                           
   722  0CF0                     l2026:	
   723                           ;incstack = 0
   724                           ; Regs used in _setup: [wreg+status,2+status,0]
   725                           
   726                           
   727                           ;main_master.c: 121:     ANSEL = 0b11111111;
   728  0CF0  30FF               	movlw	255
   729  0CF1  1683               	bsf	3,5	;RP0=1, select bank3
   730  0CF2  1703               	bsf	3,6	;RP1=1, select bank3
   731  0CF3  0088               	movwf	8	;volatile
   732  0CF4                     l2028:
   733                           
   734                           ;main_master.c: 122:     ANSELH = 0;
   735  0CF4  0189               	clrf	9	;volatile
   736  0CF5                     l2030:
   737                           
   738                           ;main_master.c: 124:     TRISA = 0b11111111;
   739  0CF5  30FF               	movlw	255
   740  0CF6  1683               	bsf	3,5	;RP0=1, select bank1
   741  0CF7  1303               	bcf	3,6	;RP1=0, select bank1
   742  0CF8  0085               	movwf	5	;volatile
   743                           
   744                           ;main_master.c: 125:     PORTA = 0;
   745  0CF9  1283               	bcf	3,5	;RP0=0, select bank0
   746  0CFA  1303               	bcf	3,6	;RP1=0, select bank0
   747  0CFB  0185               	clrf	5	;volatile
   748                           
   749                           ;main_master.c: 127:     TRISD = 0b00000000;
   750  0CFC  1683               	bsf	3,5	;RP0=1, select bank1
   751  0CFD  1303               	bcf	3,6	;RP1=0, select bank1
   752  0CFE  0188               	clrf	8	;volatile
   753                           
   754                           ;main_master.c: 128:     PORTD = 0b00000000;
   755  0CFF  1283               	bcf	3,5	;RP0=0, select bank0
   756  0D00  1303               	bcf	3,6	;RP1=0, select bank0
   757  0D01  0188               	clrf	8	;volatile
   758  0D02                     l2032:
   759                           
   760                           ;main_master.c: 131:     TRISC = 0b00010000;
   761  0D02  3010               	movlw	16
   762  0D03  1683               	bsf	3,5	;RP0=1, select bank1
   763  0D04  1303               	bcf	3,6	;RP1=0, select bank1
   764  0D05  0087               	movwf	7	;volatile
   765  0D06                     l2034:
   766                           
   767                           ;main_master.c: 132:     PORTC = 0;
   768  0D06  1283               	bcf	3,5	;RP0=0, select bank0
   769  0D07  1303               	bcf	3,6	;RP1=0, select bank0
   770  0D08  0187               	clrf	7	;volatile
   771  0D09                     l2036:
   772                           
   773                           ;main_master.c: 135:     OSCCONbits.IRCF = 0b011;
   774  0D09  1683               	bsf	3,5	;RP0=1, select bank1
   775  0D0A  1303               	bcf	3,6	;RP1=0, select bank1
   776  0D0B  080F               	movf	15,w	;volatile
   777  0D0C  398F               	andlw	-113
   778  0D0D  3830               	iorlw	48
   779  0D0E  008F               	movwf	15	;volatile
   780  0D0F                     l2038:
   781                           
   782                           ;main_master.c: 136:     OSCCONbits.SCS = 1;
   783  0D0F  140F               	bsf	15,0	;volatile
   784  0D10                     l2040:
   785                           
   786                           ;main_master.c: 139:     ADCON0bits.ADCS = 0b01;
   787  0D10  1283               	bcf	3,5	;RP0=0, select bank0
   788  0D11  1303               	bcf	3,6	;RP1=0, select bank0
   789  0D12  081F               	movf	31,w	;volatile
   790  0D13  393F               	andlw	-193
   791  0D14  3840               	iorlw	64
   792  0D15  009F               	movwf	31	;volatile
   793  0D16                     l2042:
   794                           
   795                           ;main_master.c: 140:     ADCON1bits.VCFG0 = 0;
   796  0D16  1683               	bsf	3,5	;RP0=1, select bank1
   797  0D17  1303               	bcf	3,6	;RP1=0, select bank1
   798  0D18  121F               	bcf	31,4	;volatile
   799  0D19                     l2044:
   800                           
   801                           ;main_master.c: 141:     ADCON1bits.VCFG1 = 0;
   802  0D19  129F               	bcf	31,5	;volatile
   803  0D1A                     l2046:
   804                           
   805                           ;main_master.c: 142:     ADCON0bits.CHS = 0b0000;
   806  0D1A  30C3               	movlw	-61
   807  0D1B  1283               	bcf	3,5	;RP0=0, select bank0
   808  0D1C  1303               	bcf	3,6	;RP1=0, select bank0
   809  0D1D  059F               	andwf	31,f	;volatile
   810  0D1E                     l2048:
   811                           
   812                           ;main_master.c: 143:     ADCON1bits.ADFM = 0;
   813  0D1E  1683               	bsf	3,5	;RP0=1, select bank1
   814  0D1F  1303               	bcf	3,6	;RP1=0, select bank1
   815  0D20  139F               	bcf	31,7	;volatile
   816  0D21                     l2050:
   817                           
   818                           ;main_master.c: 144:     ADCON0bits.ADON = 1;
   819  0D21  1283               	bcf	3,5	;RP0=0, select bank0
   820  0D22  1303               	bcf	3,6	;RP1=0, select bank0
   821  0D23  141F               	bsf	31,0	;volatile
   822  0D24                     l2052:
   823                           
   824                           ;main_master.c: 145:     _delay((unsigned long)((40)*(500000/4000000.0)));
   825  0D24  2D25               	nop2	;2 cycle nop
   826  0D25  2D26               	nop2	;2 cycle nop
   827  0D26  0000               	nop
   828  0D27                     l2054:
   829                           
   830                           ;main_master.c: 148:     TRISCbits.TRISC2 = 1;
   831  0D27  1683               	bsf	3,5	;RP0=1, select bank1
   832  0D28  1303               	bcf	3,6	;RP1=0, select bank1
   833  0D29  1507               	bsf	7,2	;volatile
   834  0D2A                     l2056:
   835                           
   836                           ;main_master.c: 149:     TRISCbits.TRISC1 = 1;
   837  0D2A  1487               	bsf	7,1	;volatile
   838  0D2B                     l2058:
   839                           
   840                           ;main_master.c: 150:     PR2 = 156;
   841  0D2B  309C               	movlw	156
   842  0D2C  0092               	movwf	18	;volatile
   843  0D2D                     l2060:
   844                           
   845                           ;main_master.c: 153:     CCP1CON = 0;
   846  0D2D  1283               	bcf	3,5	;RP0=0, select bank0
   847  0D2E  1303               	bcf	3,6	;RP1=0, select bank0
   848  0D2F  0197               	clrf	23	;volatile
   849  0D30                     l2062:
   850                           
   851                           ;main_master.c: 154:     CCP1CONbits.P1M = 0;
   852  0D30  303F               	movlw	-193
   853  0D31  0597               	andwf	23,f	;volatile
   854  0D32                     l2064:
   855                           
   856                           ;main_master.c: 156:     CCP1CONbits.CCP1M = 0b1100;
   857  0D32  0817               	movf	23,w	;volatile
   858  0D33  39F0               	andlw	-16
   859  0D34  380C               	iorlw	12
   860  0D35  0097               	movwf	23	;volatile
   861  0D36                     l2066:
   862                           
   863                           ;main_master.c: 157:     CCP2CONbits.CCP2M = 0b1100;
   864  0D36  081D               	movf	29,w	;volatile
   865  0D37  39F0               	andlw	-16
   866  0D38  380C               	iorlw	12
   867  0D39  009D               	movwf	29	;volatile
   868  0D3A                     l2068:
   869                           
   870                           ;main_master.c: 159:     CCPR1L = 155>>2;
   871  0D3A  3026               	movlw	38
   872  0D3B  0095               	movwf	21	;volatile
   873  0D3C                     l2070:
   874                           
   875                           ;main_master.c: 160:     CCP1CONbits.DC1B = 155 & 0b11;
   876  0D3C  3030               	movlw	48
   877  0D3D  0497               	iorwf	23,f	;volatile
   878  0D3E                     l2072:
   879                           
   880                           ;main_master.c: 162:     CCPR2L = 155>>2;
   881  0D3E  3026               	movlw	38
   882  0D3F  009B               	movwf	27	;volatile
   883  0D40                     l2074:
   884                           
   885                           ;main_master.c: 163:     CCP2CONbits.DC2B0 = 155 & 0b01;
   886  0D40  161D               	bsf	29,4	;volatile
   887  0D41                     l2076:
   888                           
   889                           ;main_master.c: 164:     CCP2CONbits.DC2B1 = 155 & 0b10;
   890  0D41  129D               	bcf	29,5	;volatile
   891  0D42                     l2078:
   892                           
   893                           ;main_master.c: 167:     PIR1bits.TMR2IF = 0;
   894  0D42  108C               	bcf	12,1	;volatile
   895  0D43                     l2080:
   896                           
   897                           ;main_master.c: 168:     T2CONbits.T2CKPS = 0b11;
   898  0D43  3003               	movlw	3
   899  0D44  0492               	iorwf	18,f	;volatile
   900  0D45                     l2082:
   901                           
   902                           ;main_master.c: 169:     T2CONbits.TMR2ON = 1;
   903  0D45  1512               	bsf	18,2	;volatile
   904  0D46                     l96:	
   905                           ;main_master.c: 170:     while(!PIR1bits.TMR2IF);
   906                           
   907  0D46  1C8C               	btfss	12,1	;volatile
   908  0D47  2D49               	goto	u2941
   909  0D48  2D4A               	goto	u2940
   910  0D49                     u2941:
   911  0D49  2D46               	goto	l96
   912  0D4A                     u2940:
   913  0D4A                     l98:
   914                           
   915                           ;main_master.c: 171:     PIR1bits.TMR2IF = 0;
   916  0D4A  108C               	bcf	12,1	;volatile
   917                           
   918                           ;main_master.c: 173:     TRISCbits.TRISC2 = 0;
   919  0D4B  1683               	bsf	3,5	;RP0=1, select bank1
   920  0D4C  1303               	bcf	3,6	;RP1=0, select bank1
   921  0D4D  1107               	bcf	7,2	;volatile
   922                           
   923                           ;main_master.c: 174:     TRISCbits.TRISC1 = 0;
   924  0D4E  1087               	bcf	7,1	;volatile
   925  0D4F                     l2084:
   926                           
   927                           ;main_master.c: 179:     SSPCONbits.SSPM = 0b0000;
   928  0D4F  30F0               	movlw	-16
   929  0D50  1283               	bcf	3,5	;RP0=0, select bank0
   930  0D51  1303               	bcf	3,6	;RP1=0, select bank0
   931  0D52  0594               	andwf	20,f	;volatile
   932  0D53                     l2086:
   933                           
   934                           ;main_master.c: 180:     SSPCONbits.CKP = 0;
   935  0D53  1214               	bcf	20,4	;volatile
   936  0D54                     l2088:
   937                           
   938                           ;main_master.c: 181:     SSPCONbits.SSPEN = 1;
   939  0D54  1694               	bsf	20,5	;volatile
   940  0D55                     l2090:
   941                           
   942                           ;main_master.c: 183:     SSPSTATbits.CKE = 1;
   943  0D55  1683               	bsf	3,5	;RP0=1, select bank1
   944  0D56  1303               	bcf	3,6	;RP1=0, select bank1
   945  0D57  1714               	bsf	20,6	;volatile
   946  0D58                     l2092:
   947                           
   948                           ;main_master.c: 184:     SSPSTATbits.SMP = 1;
   949  0D58  1794               	bsf	20,7	;volatile
   950  0D59                     l2094:
   951                           
   952                           ;main_master.c: 185:     SSPBUF = 0xFF;
   953  0D59  30FF               	movlw	255
   954  0D5A  1283               	bcf	3,5	;RP0=0, select bank0
   955  0D5B  1303               	bcf	3,6	;RP1=0, select bank0
   956  0D5C  0093               	movwf	19	;volatile
   957  0D5D                     l2096:
   958                           
   959                           ;main_master.c: 188:     INTCONbits.PEIE = 1;
   960  0D5D  170B               	bsf	11,6	;volatile
   961  0D5E                     l2098:
   962                           
   963                           ;main_master.c: 189:     INTCONbits.GIE = 1;
   964  0D5E  178B               	bsf	11,7	;volatile
   965  0D5F                     l2100:
   966                           
   967                           ;main_master.c: 191:     PIR1bits.ADIF = 0;
   968  0D5F  130C               	bcf	12,6	;volatile
   969  0D60                     l2102:
   970                           
   971                           ;main_master.c: 192:     PIE1bits.ADIE = 1;
   972  0D60  1683               	bsf	3,5	;RP0=1, select bank1
   973  0D61  1303               	bcf	3,6	;RP1=0, select bank1
   974  0D62  170C               	bsf	12,6	;volatile
   975  0D63                     l99:
   976  0D63  0008               	return
   977  0D64                     __end_of_setup:
   978                           
   979                           	psect	text2
   980  0C86                     __ptext2:	
   981 ;; *************** function _isr *****************
   982 ;; Defined at:
   983 ;;		line 69 in file "main_master.c"
   984 ;; Parameters:    Size  Location     Type
   985 ;;		None
   986 ;; Auto vars:     Size  Location     Type
   987 ;;		None
   988 ;; Return value:  Size  Location     Type
   989 ;;                  1    wreg      void 
   990 ;; Registers used:
   991 ;;		wreg, status,2, status,0, btemp+1, pclath, cstack
   992 ;; Tracked objects:
   993 ;;		On entry : 0/0
   994 ;;		On exit  : 0/0
   995 ;;		Unchanged: 0/0
   996 ;; Data sizes:     COMMON   BANK0   BANK1   BANK3   BANK2
   997 ;;      Params:         0       0       0       0       0
   998 ;;      Locals:         0       0       0       0       0
   999 ;;      Temps:          0       0       4       0       0
  1000 ;;      Totals:         0       0       4       0       0
  1001 ;;Total ram usage:        4 bytes
  1002 ;; Hardware stack levels used: 1
  1003 ;; Hardware stack levels required when called: 4
  1004 ;; This function calls:
  1005 ;;		_move_servo
  1006 ;;		_send_data
  1007 ;; This function is called by:
  1008 ;;		Interrupt level 1
  1009 ;; This function uses a non-reentrant model
  1010 ;;
  1011                           
  1012  0C86                     _isr:	
  1013                           ;psect for function _isr
  1014                           
  1015  0C86                     i1l2104:
  1016                           
  1017                           ;main_master.c: 71:     if(PIR1bits.ADIF){
  1018  0C86  1283               	bcf	3,5	;RP0=0, select bank0
  1019  0C87  1303               	bcf	3,6	;RP1=0, select bank0
  1020  0C88  1F0C               	btfss	12,6	;volatile
  1021  0C89  2C8B               	goto	u295_21
  1022  0C8A  2C8C               	goto	u295_20
  1023  0C8B                     u295_21:
  1024  0C8B  2CE5               	goto	i1l78
  1025  0C8C                     u295_20:
  1026  0C8C                     i1l2106:
  1027                           
  1028                           ;main_master.c: 73:         if(ADCON0bits.CHS == 0b0000){
  1029  0C8C  0C1F               	rrf	31,w	;volatile
  1030  0C8D  1683               	bsf	3,5	;RP0=1, select bank1
  1031  0C8E  1303               	bcf	3,6	;RP1=0, select bank1
  1032  0C8F  00AF               	movwf	??_isr^(0+128)
  1033  0C90  0C2F               	rrf	??_isr^(0+128),w
  1034  0C91  390F               	andlw	15
  1035  0C92  3A00               	xorlw	0
  1036  0C93  1D03               	skipz
  1037  0C94  2C96               	goto	u296_21
  1038  0C95  2C97               	goto	u296_20
  1039  0C96                     u296_21:
  1040  0C96  2CA2               	goto	i1l2110
  1041  0C97                     u296_20:
  1042  0C97                     i1l2108:
  1043                           
  1044                           ;main_master.c: 74:             move_servo (1,CCPR_1);
  1045  0C97  0837               	movf	(_CCPR_1+1)^(0+128),w
  1046  0C98  00AC               	movwf	(move_servo@CCPR+1)^(0+128)
  1047  0C99  0836               	movf	_CCPR_1^(0+128),w
  1048  0C9A  00AB               	movwf	move_servo@CCPR^(0+128)
  1049  0C9B  3001               	movlw	1
  1050  0C9C  120A  158A  2564  120A  158A  	fcall	_move_servo
  1051                           
  1052                           ;main_master.c: 75:         }
  1053  0CA1  2CE2               	goto	i1l2124
  1054  0CA2                     i1l2110:
  1055  0CA2  1283               	bcf	3,5	;RP0=0, select bank0
  1056  0CA3  1303               	bcf	3,6	;RP1=0, select bank0
  1057  0CA4  0C1F               	rrf	31,w	;volatile
  1058  0CA5  1683               	bsf	3,5	;RP0=1, select bank1
  1059  0CA6  1303               	bcf	3,6	;RP1=0, select bank1
  1060  0CA7  00AF               	movwf	??_isr^(0+128)
  1061  0CA8  0C2F               	rrf	??_isr^(0+128),w
  1062  0CA9  390F               	andlw	15
  1063  0CAA  3A01               	xorlw	1
  1064  0CAB  1D03               	skipz
  1065  0CAC  2CAE               	goto	u297_21
  1066  0CAD  2CAF               	goto	u297_20
  1067  0CAE                     u297_21:
  1068  0CAE  2CBD               	goto	i1l2116
  1069  0CAF                     u297_20:
  1070  0CAF                     i1l2112:
  1071                           
  1072                           ;main_master.c: 77:             send_data(ADRESH,1);
  1073  0CAF  01F0               	clrf	send_data@slave
  1074  0CB0  0AF0               	incf	send_data@slave,f
  1075  0CB1  1283               	bcf	3,5	;RP0=0, select bank0
  1076  0CB2  1303               	bcf	3,6	;RP1=0, select bank0
  1077  0CB3  081E               	movf	30,w	;volatile
  1078  0CB4  120A  118A  27E3  120A  158A  	fcall	_send_data
  1079  0CB9                     i1l2114:
  1080                           
  1081                           ;main_master.c: 78:             PORTDbits.RD1 = 0;
  1082  0CB9  1283               	bcf	3,5	;RP0=0, select bank0
  1083  0CBA  1303               	bcf	3,6	;RP1=0, select bank0
  1084  0CBB  1088               	bcf	8,1	;volatile
  1085                           
  1086                           ;main_master.c: 79:         }
  1087  0CBC  2CE2               	goto	i1l2124
  1088  0CBD                     i1l2116:
  1089  0CBD  1283               	bcf	3,5	;RP0=0, select bank0
  1090  0CBE  1303               	bcf	3,6	;RP1=0, select bank0
  1091  0CBF  0C1F               	rrf	31,w	;volatile
  1092  0CC0  1683               	bsf	3,5	;RP0=1, select bank1
  1093  0CC1  1303               	bcf	3,6	;RP1=0, select bank1
  1094  0CC2  00AF               	movwf	??_isr^(0+128)
  1095  0CC3  0C2F               	rrf	??_isr^(0+128),w
  1096  0CC4  390F               	andlw	15
  1097  0CC5  3A02               	xorlw	2
  1098  0CC6  1D03               	skipz
  1099  0CC7  2CC9               	goto	u298_21
  1100  0CC8  2CCA               	goto	u298_20
  1101  0CC9                     u298_21:
  1102  0CC9  2CD5               	goto	i1l2120
  1103  0CCA                     u298_20:
  1104  0CCA                     i1l2118:
  1105                           
  1106                           ;main_master.c: 81:             move_servo (2,CCPR_2);
  1107  0CCA  0835               	movf	(_CCPR_2+1)^(0+128),w
  1108  0CCB  00AC               	movwf	(move_servo@CCPR+1)^(0+128)
  1109  0CCC  0834               	movf	_CCPR_2^(0+128),w
  1110  0CCD  00AB               	movwf	move_servo@CCPR^(0+128)
  1111  0CCE  3002               	movlw	2
  1112  0CCF  120A  158A  2564  120A  158A  	fcall	_move_servo
  1113                           
  1114                           ;main_master.c: 82:         }
  1115  0CD4  2CE2               	goto	i1l2124
  1116  0CD5                     i1l2120:
  1117                           
  1118                           ;main_master.c: 84:             send_data(ADRESH,1);
  1119  0CD5  01F0               	clrf	send_data@slave
  1120  0CD6  0AF0               	incf	send_data@slave,f
  1121  0CD7  1283               	bcf	3,5	;RP0=0, select bank0
  1122  0CD8  1303               	bcf	3,6	;RP1=0, select bank0
  1123  0CD9  081E               	movf	30,w	;volatile
  1124  0CDA  120A  118A  27E3  120A  158A  	fcall	_send_data
  1125  0CDF                     i1l2122:
  1126                           
  1127                           ;main_master.c: 85:             PORTDbits.RD1 = 1;
  1128  0CDF  1283               	bcf	3,5	;RP0=0, select bank0
  1129  0CE0  1303               	bcf	3,6	;RP1=0, select bank0
  1130  0CE1  1488               	bsf	8,1	;volatile
  1131  0CE2                     i1l2124:
  1132                           
  1133                           ;main_master.c: 87:         PIR1bits.ADIF = 0;
  1134  0CE2  1283               	bcf	3,5	;RP0=0, select bank0
  1135  0CE3  1303               	bcf	3,6	;RP1=0, select bank0
  1136  0CE4  130C               	bcf	12,6	;volatile
  1137  0CE5                     i1l78:
  1138  0CE5  1683               	bsf	3,5	;RP0=1, select bank1
  1139  0CE6  1303               	bcf	3,6	;RP1=0, select bank1
  1140  0CE7  0832               	movf	(??_isr+3)^(0+128),w
  1141  0CE8  00FF               	movwf	btemp+1
  1142  0CE9  0831               	movf	(??_isr+2)^(0+128),w
  1143  0CEA  008A               	movwf	10
  1144  0CEB  0E30               	swapf	(??_isr+1)^(0+128),w
  1145  0CEC  0083               	movwf	3
  1146  0CED  0EFE               	swapf	btemp,f
  1147  0CEE  0E7E               	swapf	btemp,w
  1148  0CEF  0009               	retfie
  1149  0CF0                     __end_of_isr:
  1150                           
  1151                           	psect	intentry
  1152  0004                     __pintentry:	
  1153                           ;incstack = 0
  1154                           ; Regs used in _isr: [wreg+status,2+status,0+btemp+1+pclath+cstack]
  1155                           
  1156  0004                     interrupt_function:
  1157  007E                     saved_w	set	btemp
  1158  0004  00FE               	movwf	btemp
  1159  0005  0E03               	swapf	3,w
  1160  0006  1683               	bsf	3,5	;RP0=1, select bank1
  1161  0007  1303               	bcf	3,6	;RP1=0, select bank1
  1162  0008  00B0               	movwf	(??_isr+1)^(0+128)
  1163  0009  080A               	movf	10,w
  1164  000A  00B1               	movwf	(??_isr+2)^(0+128)
  1165  000B  087F               	movf	btemp+1,w
  1166  000C  00B2               	movwf	(??_isr+3)^(0+128)
  1167  000D  120A  158A  2C86   	ljmp	_isr
  1168                           
  1169                           	psect	text3
  1170  07E3                     __ptext3:	
  1171 ;; *************** function _send_data *****************
  1172 ;; Defined at:
  1173 ;;		line 232 in file "main_master.c"
  1174 ;; Parameters:    Size  Location     Type
  1175 ;;  data            1    wreg     unsigned char 
  1176 ;;  slave           1    0[COMMON] unsigned char 
  1177 ;; Auto vars:     Size  Location     Type
  1178 ;;  data            1    1[COMMON] unsigned char 
  1179 ;; Return value:  Size  Location     Type
  1180 ;;                  1    wreg      void 
  1181 ;; Registers used:
  1182 ;;		wreg, status,2, status,0
  1183 ;; Tracked objects:
  1184 ;;		On entry : 0/0
  1185 ;;		On exit  : 0/0
  1186 ;;		Unchanged: 0/0
  1187 ;; Data sizes:     COMMON   BANK0   BANK1   BANK3   BANK2
  1188 ;;      Params:         1       0       0       0       0
  1189 ;;      Locals:         1       0       0       0       0
  1190 ;;      Temps:          0       0       0       0       0
  1191 ;;      Totals:         2       0       0       0       0
  1192 ;;Total ram usage:        2 bytes
  1193 ;; Hardware stack levels used: 1
  1194 ;; This function calls:
  1195 ;;		Nothing
  1196 ;; This function is called by:
  1197 ;;		_isr
  1198 ;; This function uses a non-reentrant model
  1199 ;;
  1200                           
  1201  07E3                     _send_data:	
  1202                           ;psect for function _send_data
  1203                           
  1204                           
  1205                           ;incstack = 0
  1206                           ; Regs used in _send_data: [wreg+status,2+status,0]
  1207                           ;send_data@data stored from wreg
  1208  07E3  00F1               	movwf	send_data@data
  1209  07E4                     i1l2020:
  1210                           
  1211                           ;main_master.c: 234:     if (slave == 1){
  1212  07E4  0370               	decf	send_data@slave,w
  1213  07E5  1D03               	btfss	3,2
  1214  07E6  2FE8               	goto	u292_21
  1215  07E7  2FE9               	goto	u292_20
  1216  07E8                     u292_21:
  1217  07E8  2FF7               	goto	i1l114
  1218  07E9                     u292_20:
  1219  07E9                     i1l2022:
  1220                           
  1221                           ;main_master.c: 235:     PORTDbits.RD0 = 0;
  1222  07E9  1283               	bcf	3,5	;RP0=0, select bank0
  1223  07EA  1303               	bcf	3,6	;RP1=0, select bank0
  1224  07EB  1008               	bcf	8,0	;volatile
  1225  07EC                     i1l2024:
  1226                           
  1227                           ;main_master.c: 236:     SSPBUF = data;
  1228  07EC  0871               	movf	send_data@data,w
  1229  07ED  0093               	movwf	19	;volatile
  1230  07EE                     i1l111:	
  1231                           ;main_master.c: 237:     while(!SSPSTATbits.BF){}
  1232                           
  1233  07EE  1683               	bsf	3,5	;RP0=1, select bank1
  1234  07EF  1303               	bcf	3,6	;RP1=0, select bank1
  1235  07F0  1C14               	btfss	20,0	;volatile
  1236  07F1  2FF3               	goto	u293_21
  1237  07F2  2FF4               	goto	u293_20
  1238  07F3                     u293_21:
  1239  07F3  2FEE               	goto	i1l111
  1240  07F4                     u293_20:
  1241  07F4                     i1l113:
  1242                           
  1243                           ;main_master.c: 238:     PORTDbits.RD0 = 1;
  1244  07F4  1283               	bcf	3,5	;RP0=0, select bank0
  1245  07F5  1303               	bcf	3,6	;RP1=0, select bank0
  1246  07F6  1408               	bsf	8,0	;volatile
  1247  07F7                     i1l114:
  1248  07F7  0008               	return
  1249  07F8                     __end_of_send_data:
  1250                           
  1251                           	psect	text4
  1252  0D64                     __ptext4:	
  1253 ;; *************** function _move_servo *****************
  1254 ;; Defined at:
  1255 ;;		line 216 in file "main_master.c"
  1256 ;; Parameters:    Size  Location     Type
  1257 ;;  servo           1    wreg     unsigned char 
  1258 ;;  CCPR            2   11[BANK1 ] unsigned short 
  1259 ;; Auto vars:     Size  Location     Type
  1260 ;;  servo           1   79[BANK0 ] unsigned char 
  1261 ;; Return value:  Size  Location     Type
  1262 ;;                  1    wreg      void 
  1263 ;; Registers used:
  1264 ;;		wreg, status,2, status,0, btemp+1, pclath, cstack
  1265 ;; Tracked objects:
  1266 ;;		On entry : 0/0
  1267 ;;		On exit  : 0/0
  1268 ;;		Unchanged: 0/0
  1269 ;; Data sizes:     COMMON   BANK0   BANK1   BANK3   BANK2
  1270 ;;      Params:         0       0       2       0       0
  1271 ;;      Locals:         0       1       0       0       0
  1272 ;;      Temps:          0       0       2       0       0
  1273 ;;      Totals:         0       1       4       0       0
  1274 ;;Total ram usage:        5 bytes
  1275 ;; Hardware stack levels used: 1
  1276 ;; Hardware stack levels required when called: 3
  1277 ;; This function calls:
  1278 ;;		_interpole
  1279 ;; This function is called by:
  1280 ;;		_isr
  1281 ;; This function uses a non-reentrant model
  1282 ;;
  1283                           
  1284  0D64                     _move_servo:	
  1285                           ;psect for function _move_servo
  1286                           
  1287                           
  1288                           ;incstack = 0
  1289                           ; Regs used in _move_servo: [wreg+status,2+status,0+btemp+1+pclath+cstack]
  1290                           ;move_servo@servo stored from wreg
  1291  0D64  1283               	bcf	3,5	;RP0=0, select bank0
  1292  0D65  1303               	bcf	3,6	;RP1=0, select bank0
  1293  0D66  00EF               	movwf	move_servo@servo
  1294  0D67                     i1l2002:
  1295                           
  1296                           ;main_master.c: 218:     if (servo == 1){
  1297  0D67  036F               	decf	move_servo@servo,w
  1298  0D68  1D03               	btfss	3,2
  1299  0D69  2D6B               	goto	u291_21
  1300  0D6A  2D6C               	goto	u291_20
  1301  0D6B                     u291_21:
  1302  0D6B  2DA9               	goto	i1l2010
  1303  0D6C                     u291_20:
  1304  0D6C                     i1l2004:
  1305                           
  1306                           ;main_master.c: 219:         CCPR = interpole(ADRESH, 0, 255, 20, 80);
  1307  0D6C  1683               	bsf	3,5	;RP0=1, select bank1
  1308  0D6D  1303               	bcf	3,6	;RP1=0, select bank1
  1309  0D6E  01A5               	clrf	interpole@in_min^(0+128)
  1310  0D6F  30FF               	movlw	255
  1311  0D70  00AD               	movwf	??_move_servo^(0+128)
  1312  0D71  082D               	movf	??_move_servo^(0+128),w
  1313  0D72  00A6               	movwf	interpole@in_max^(0+128)
  1314  0D73  3014               	movlw	20
  1315  0D74  00A7               	movwf	interpole@out_min^(0+128)
  1316  0D75  3000               	movlw	0
  1317  0D76  00A8               	movwf	(interpole@out_min^(0+128)+1)
  1318  0D77  3050               	movlw	80
  1319  0D78  00A9               	movwf	interpole@out_max^(0+128)
  1320  0D79  3000               	movlw	0
  1321  0D7A  00AA               	movwf	(interpole@out_max^(0+128)+1)
  1322  0D7B  1283               	bcf	3,5	;RP0=0, select bank0
  1323  0D7C  1303               	bcf	3,6	;RP1=0, select bank0
  1324  0D7D  081E               	movf	30,w	;volatile
  1325  0D7E  120A  158A  2694  120A  158A  	fcall	_interpole
  1326  0D83  1683               	bsf	3,5	;RP0=1, select bank1
  1327  0D84  1303               	bcf	3,6	;RP1=0, select bank1
  1328  0D85  0826               	movf	(?_interpole+1)^(0+128),w
  1329  0D86  00AC               	movwf	(move_servo@CCPR+1)^(0+128)
  1330  0D87  0825               	movf	?_interpole^(0+128),w
  1331  0D88  00AB               	movwf	move_servo@CCPR^(0+128)
  1332  0D89                     i1l2006:
  1333                           
  1334                           ;main_master.c: 220:         CCPR1L = (uint8_t)(CCPR>>2);
  1335  0D89  082C               	movf	(move_servo@CCPR+1)^(0+128),w
  1336  0D8A  00AE               	movwf	(??_move_servo^(0+128)+1)
  1337  0D8B  082B               	movf	move_servo@CCPR^(0+128),w
  1338  0D8C  00AD               	movwf	??_move_servo^(0+128)
  1339  0D8D  1003               	clrc
  1340  0D8E  0CAE               	rrf	(??_move_servo^(0+128)+1),f
  1341  0D8F  0CAD               	rrf	??_move_servo^(0+128),f
  1342  0D90  1003               	clrc
  1343  0D91  0CAE               	rrf	(??_move_servo^(0+128)+1),f
  1344  0D92  0CAD               	rrf	??_move_servo^(0+128),f
  1345  0D93  082D               	movf	??_move_servo^(0+128),w
  1346  0D94  1283               	bcf	3,5	;RP0=0, select bank0
  1347  0D95  1303               	bcf	3,6	;RP1=0, select bank0
  1348  0D96  0095               	movwf	21	;volatile
  1349  0D97                     i1l2008:
  1350                           
  1351                           ;main_master.c: 221:         CCP1CONbits.DC1B = CCPR & 0b11;
  1352  0D97  1683               	bsf	3,5	;RP0=1, select bank1
  1353  0D98  1303               	bcf	3,6	;RP1=0, select bank1
  1354  0D99  082B               	movf	move_servo@CCPR^(0+128),w
  1355  0D9A  3903               	andlw	3
  1356  0D9B  00AD               	movwf	??_move_servo^(0+128)
  1357  0D9C  0EAD               	swapf	??_move_servo^(0+128),f
  1358  0D9D  1283               	bcf	3,5	;RP0=0, select bank0
  1359  0D9E  1303               	bcf	3,6	;RP1=0, select bank0
  1360  0D9F  0817               	movf	23,w	;volatile
  1361  0DA0  1683               	bsf	3,5	;RP0=1, select bank1
  1362  0DA1  1303               	bcf	3,6	;RP1=0, select bank1
  1363  0DA2  062D               	xorwf	??_move_servo^(0+128),w
  1364  0DA3  39CF               	andlw	-49
  1365  0DA4  062D               	xorwf	??_move_servo^(0+128),w
  1366  0DA5  1283               	bcf	3,5	;RP0=0, select bank0
  1367  0DA6  1303               	bcf	3,6	;RP1=0, select bank0
  1368  0DA7  0097               	movwf	23	;volatile
  1369                           
  1370                           ;main_master.c: 222:     }
  1371  0DA8  2DF7               	goto	i1l107
  1372  0DA9                     i1l2010:
  1373                           
  1374                           ;main_master.c: 224:         CCPR = interpole(ADRESH, 0, 255, 20, 80);
  1375  0DA9  1683               	bsf	3,5	;RP0=1, select bank1
  1376  0DAA  1303               	bcf	3,6	;RP1=0, select bank1
  1377  0DAB  01A5               	clrf	interpole@in_min^(0+128)
  1378  0DAC  30FF               	movlw	255
  1379  0DAD  00AD               	movwf	??_move_servo^(0+128)
  1380  0DAE  082D               	movf	??_move_servo^(0+128),w
  1381  0DAF  00A6               	movwf	interpole@in_max^(0+128)
  1382  0DB0  3014               	movlw	20
  1383  0DB1  00A7               	movwf	interpole@out_min^(0+128)
  1384  0DB2  3000               	movlw	0
  1385  0DB3  00A8               	movwf	(interpole@out_min^(0+128)+1)
  1386  0DB4  3050               	movlw	80
  1387  0DB5  00A9               	movwf	interpole@out_max^(0+128)
  1388  0DB6  3000               	movlw	0
  1389  0DB7  00AA               	movwf	(interpole@out_max^(0+128)+1)
  1390  0DB8  1283               	bcf	3,5	;RP0=0, select bank0
  1391  0DB9  1303               	bcf	3,6	;RP1=0, select bank0
  1392  0DBA  081E               	movf	30,w	;volatile
  1393  0DBB  120A  158A  2694  120A  158A  	fcall	_interpole
  1394  0DC0  1683               	bsf	3,5	;RP0=1, select bank1
  1395  0DC1  1303               	bcf	3,6	;RP1=0, select bank1
  1396  0DC2  0826               	movf	(?_interpole+1)^(0+128),w
  1397  0DC3  00AC               	movwf	(move_servo@CCPR+1)^(0+128)
  1398  0DC4  0825               	movf	?_interpole^(0+128),w
  1399  0DC5  00AB               	movwf	move_servo@CCPR^(0+128)
  1400  0DC6                     i1l2012:
  1401                           
  1402                           ;main_master.c: 225:         CCPR2L = (uint8_t) (CCPR>>2);
  1403  0DC6  082C               	movf	(move_servo@CCPR+1)^(0+128),w
  1404  0DC7  00AE               	movwf	(??_move_servo^(0+128)+1)
  1405  0DC8  082B               	movf	move_servo@CCPR^(0+128),w
  1406  0DC9  00AD               	movwf	??_move_servo^(0+128)
  1407  0DCA  1003               	clrc
  1408  0DCB  0CAE               	rrf	(??_move_servo^(0+128)+1),f
  1409  0DCC  0CAD               	rrf	??_move_servo^(0+128),f
  1410  0DCD  1003               	clrc
  1411  0DCE  0CAE               	rrf	(??_move_servo^(0+128)+1),f
  1412  0DCF  0CAD               	rrf	??_move_servo^(0+128),f
  1413  0DD0  082D               	movf	??_move_servo^(0+128),w
  1414  0DD1  1283               	bcf	3,5	;RP0=0, select bank0
  1415  0DD2  1303               	bcf	3,6	;RP1=0, select bank0
  1416  0DD3  009B               	movwf	27	;volatile
  1417  0DD4                     i1l2014:
  1418                           
  1419                           ;main_master.c: 226:         CCP2CONbits.DC2B0 = CCPR & 0b10;
  1420  0DD4  1683               	bsf	3,5	;RP0=1, select bank1
  1421  0DD5  1303               	bcf	3,6	;RP1=0, select bank1
  1422  0DD6  082B               	movf	move_servo@CCPR^(0+128),w
  1423  0DD7  3902               	andlw	2
  1424  0DD8  00AD               	movwf	??_move_servo^(0+128)
  1425  0DD9  0EAD               	swapf	??_move_servo^(0+128),f
  1426  0DDA  1283               	bcf	3,5	;RP0=0, select bank0
  1427  0DDB  1303               	bcf	3,6	;RP1=0, select bank0
  1428  0DDC  081D               	movf	29,w	;volatile
  1429  0DDD  1683               	bsf	3,5	;RP0=1, select bank1
  1430  0DDE  1303               	bcf	3,6	;RP1=0, select bank1
  1431  0DDF  062D               	xorwf	??_move_servo^(0+128),w
  1432  0DE0  39EF               	andlw	-17
  1433  0DE1  062D               	xorwf	??_move_servo^(0+128),w
  1434  0DE2  1283               	bcf	3,5	;RP0=0, select bank0
  1435  0DE3  1303               	bcf	3,6	;RP1=0, select bank0
  1436  0DE4  009D               	movwf	29	;volatile
  1437  0DE5                     i1l2016:
  1438                           
  1439                           ;main_master.c: 227:         CCP2CONbits.DC2B1 = CCPR & 0b01;
  1440  0DE5  1683               	bsf	3,5	;RP0=1, select bank1
  1441  0DE6  1303               	bcf	3,6	;RP1=0, select bank1
  1442  0DE7  082B               	movf	move_servo@CCPR^(0+128),w
  1443  0DE8  3901               	andlw	1
  1444  0DE9  00AD               	movwf	??_move_servo^(0+128)
  1445  0DEA  0EAD               	swapf	??_move_servo^(0+128),f
  1446  0DEB  0DAD               	rlf	??_move_servo^(0+128),f
  1447  0DEC  1283               	bcf	3,5	;RP0=0, select bank0
  1448  0DED  1303               	bcf	3,6	;RP1=0, select bank0
  1449  0DEE  081D               	movf	29,w	;volatile
  1450  0DEF  1683               	bsf	3,5	;RP0=1, select bank1
  1451  0DF0  1303               	bcf	3,6	;RP1=0, select bank1
  1452  0DF1  062D               	xorwf	??_move_servo^(0+128),w
  1453  0DF2  39DF               	andlw	-33
  1454  0DF3  062D               	xorwf	??_move_servo^(0+128),w
  1455  0DF4  1283               	bcf	3,5	;RP0=0, select bank0
  1456  0DF5  1303               	bcf	3,6	;RP1=0, select bank0
  1457  0DF6  009D               	movwf	29	;volatile
  1458  0DF7                     i1l107:
  1459  0DF7  0008               	return
  1460  0DF8                     __end_of_move_servo:
  1461                           
  1462                           	psect	text5
  1463  0E94                     __ptext5:	
  1464 ;; *************** function _interpole *****************
  1465 ;; Defined at:
  1466 ;;		line 209 in file "main_master.c"
  1467 ;; Parameters:    Size  Location     Type
  1468 ;;  value           1    wreg     unsigned char 
  1469 ;;  in_min          1    5[BANK1 ] unsigned char 
  1470 ;;  in_max          1    6[BANK1 ] unsigned char 
  1471 ;;  out_min         2    7[BANK1 ] unsigned short 
  1472 ;;  out_max         2    9[BANK1 ] unsigned short 
  1473 ;; Auto vars:     Size  Location     Type
  1474 ;;  value           1   78[BANK0 ] unsigned char 
  1475 ;; Return value:  Size  Location     Type
  1476 ;;                  2    5[BANK1 ] unsigned short 
  1477 ;; Registers used:
  1478 ;;		wreg, status,2, status,0, btemp+1, pclath, cstack
  1479 ;; Tracked objects:
  1480 ;;		On entry : 0/0
  1481 ;;		On exit  : 0/0
  1482 ;;		Unchanged: 0/0
  1483 ;; Data sizes:     COMMON   BANK0   BANK1   BANK3   BANK2
  1484 ;;      Params:         0       0       6       0       0
  1485 ;;      Locals:         0       1       0       0       0
  1486 ;;      Temps:          0       0       0       0       0
  1487 ;;      Totals:         0       1       6       0       0
  1488 ;;Total ram usage:        7 bytes
  1489 ;; Hardware stack levels used: 1
  1490 ;; Hardware stack levels required when called: 2
  1491 ;; This function calls:
  1492 ;;		___fladd
  1493 ;;		___fldiv
  1494 ;;		___flmul
  1495 ;;		___fltol
  1496 ;;		___xxtofl
  1497 ;; This function is called by:
  1498 ;;		_move_servo
  1499 ;; This function uses a non-reentrant model
  1500 ;;
  1501                           
  1502  0E94                     _interpole:	
  1503                           ;psect for function _interpole
  1504                           
  1505                           
  1506                           ;incstack = 0
  1507                           ; Regs used in _interpole: [wreg+status,2+status,0+btemp+1+pclath+cstack]
  1508                           ;interpole@value stored from wreg
  1509  0E94  1283               	bcf	3,5	;RP0=0, select bank0
  1510  0E95  1303               	bcf	3,6	;RP1=0, select bank0
  1511  0E96  00EE               	movwf	interpole@value
  1512  0E97                     i1l1998:
  1513                           
  1514                           ;main_master.c: 209: unsigned short interpole(uint8_t value, uint8_t in_min, uint8_t in_
      +                          max,;main_master.c: 210:                          unsigned short out_min, unsigned short
      +                           out_max){;main_master.c: 212:     return (unsigned short)(out_min+((float)(out_max-out_
      +                          min)/(in_max-in_min))*(value-in_min));
  1515  0E97  1683               	bsf	3,5	;RP0=1, select bank1
  1516  0E98  1303               	bcf	3,6	;RP1=0, select bank1
  1517  0E99  0827               	movf	interpole@out_min^(0+128),w
  1518  0E9A  00F0               	movwf	___xxtofl@val
  1519  0E9B  0828               	movf	(interpole@out_min+1)^(0+128),w
  1520  0E9C  00F1               	movwf	___xxtofl@val+1
  1521  0E9D  01F2               	clrf	___xxtofl@val+2
  1522  0E9E  01F3               	clrf	___xxtofl@val+3
  1523  0E9F  3000               	movlw	0
  1524  0EA0  120A  158A  2746  120A  158A  	fcall	___xxtofl
  1525  0EA5  0873               	movf	?___xxtofl+3,w
  1526  0EA6  1283               	bcf	3,5	;RP0=0, select bank0
  1527  0EA7  1303               	bcf	3,6	;RP1=0, select bank0
  1528  0EA8  00DB               	movwf	___fladd@a+3
  1529  0EA9  0872               	movf	?___xxtofl+2,w
  1530  0EAA  00DA               	movwf	___fladd@a+2
  1531  0EAB  0871               	movf	?___xxtofl+1,w
  1532  0EAC  00D9               	movwf	___fladd@a+1
  1533  0EAD  0870               	movf	?___xxtofl,w
  1534  0EAE  00D8               	movwf	___fladd@a
  1535  0EAF  1683               	bsf	3,5	;RP0=1, select bank1
  1536  0EB0  1303               	bcf	3,6	;RP1=0, select bank1
  1537  0EB1  0827               	movf	interpole@out_min^(0+128),w
  1538  0EB2  0229               	subwf	interpole@out_max^(0+128),w
  1539  0EB3  00F0               	movwf	___xxtofl@val
  1540  0EB4  0828               	movf	(interpole@out_min+1)^(0+128),w
  1541  0EB5  1C03               	skipc
  1542  0EB6  0A28               	incf	(interpole@out_min+1)^(0+128),w
  1543  0EB7  022A               	subwf	(interpole@out_max+1)^(0+128),w
  1544  0EB8  00F1               	movwf	___xxtofl@val+1
  1545  0EB9  01F2               	clrf	___xxtofl@val+2
  1546  0EBA  01F3               	clrf	___xxtofl@val+3
  1547  0EBB  3000               	movlw	0
  1548  0EBC  120A  158A  2746  120A  158A  	fcall	___xxtofl
  1549  0EC1  0873               	movf	?___xxtofl+3,w
  1550  0EC2  1283               	bcf	3,5	;RP0=0, select bank0
  1551  0EC3  1303               	bcf	3,6	;RP1=0, select bank0
  1552  0EC4  00A7               	movwf	___fldiv@b+3
  1553  0EC5  0872               	movf	?___xxtofl+2,w
  1554  0EC6  00A6               	movwf	___fldiv@b+2
  1555  0EC7  0871               	movf	?___xxtofl+1,w
  1556  0EC8  00A5               	movwf	___fldiv@b+1
  1557  0EC9  0870               	movf	?___xxtofl,w
  1558  0ECA  00A4               	movwf	___fldiv@b
  1559  0ECB  1683               	bsf	3,5	;RP0=1, select bank1
  1560  0ECC  1303               	bcf	3,6	;RP1=0, select bank1
  1561  0ECD  0825               	movf	interpole@in_min^(0+128),w
  1562  0ECE  0226               	subwf	interpole@in_max^(0+128),w
  1563  0ECF  00F0               	movwf	___xxtofl@val
  1564  0ED0  01F1               	clrf	___xxtofl@val+1
  1565  0ED1  1C03               	skipc
  1566  0ED2  03F1               	decf	___xxtofl@val+1,f
  1567  0ED3  01F2               	clrf	___xxtofl@val+2
  1568  0ED4  1BF1               	btfsc	___xxtofl@val+1,7
  1569  0ED5  03F2               	decf	___xxtofl@val+2,f
  1570  0ED6  0872               	movf	___xxtofl@val+2,w
  1571  0ED7  00F3               	movwf	___xxtofl@val+3
  1572  0ED8  3001               	movlw	1
  1573  0ED9  120A  158A  2746  120A  158A  	fcall	___xxtofl
  1574  0EDE  0873               	movf	?___xxtofl+3,w
  1575  0EDF  1283               	bcf	3,5	;RP0=0, select bank0
  1576  0EE0  1303               	bcf	3,6	;RP1=0, select bank0
  1577  0EE1  00A3               	movwf	___fldiv@a+3
  1578  0EE2  0872               	movf	?___xxtofl+2,w
  1579  0EE3  00A2               	movwf	___fldiv@a+2
  1580  0EE4  0871               	movf	?___xxtofl+1,w
  1581  0EE5  00A1               	movwf	___fldiv@a+1
  1582  0EE6  0870               	movf	?___xxtofl,w
  1583  0EE7  00A0               	movwf	___fldiv@a
  1584  0EE8  120A  118A  2606  120A  158A  	fcall	___fldiv
  1585  0EED  1283               	bcf	3,5	;RP0=0, select bank0
  1586  0EEE  1303               	bcf	3,6	;RP1=0, select bank0
  1587  0EEF  0823               	movf	?___fldiv+3,w
  1588  0EF0  00C1               	movwf	___flmul@a+3
  1589  0EF1  0822               	movf	?___fldiv+2,w
  1590  0EF2  00C0               	movwf	___flmul@a+2
  1591  0EF3  0821               	movf	?___fldiv+1,w
  1592  0EF4  00BF               	movwf	___flmul@a+1
  1593  0EF5  0820               	movf	?___fldiv,w
  1594  0EF6  00BE               	movwf	___flmul@a
  1595  0EF7  1683               	bsf	3,5	;RP0=1, select bank1
  1596  0EF8  1303               	bcf	3,6	;RP1=0, select bank1
  1597  0EF9  0825               	movf	interpole@in_min^(0+128),w
  1598  0EFA  1283               	bcf	3,5	;RP0=0, select bank0
  1599  0EFB  1303               	bcf	3,6	;RP1=0, select bank0
  1600  0EFC  026E               	subwf	interpole@value,w
  1601  0EFD  00F0               	movwf	___xxtofl@val
  1602  0EFE  01F1               	clrf	___xxtofl@val+1
  1603  0EFF  1C03               	skipc
  1604  0F00  03F1               	decf	___xxtofl@val+1,f
  1605  0F01  01F2               	clrf	___xxtofl@val+2
  1606  0F02  1BF1               	btfsc	___xxtofl@val+1,7
  1607  0F03  03F2               	decf	___xxtofl@val+2,f
  1608  0F04  0872               	movf	___xxtofl@val+2,w
  1609  0F05  00F3               	movwf	___xxtofl@val+3
  1610  0F06  3001               	movlw	1
  1611  0F07  120A  158A  2746  120A  158A  	fcall	___xxtofl
  1612  0F0C  0873               	movf	?___xxtofl+3,w
  1613  0F0D  1283               	bcf	3,5	;RP0=0, select bank0
  1614  0F0E  1303               	bcf	3,6	;RP1=0, select bank0
  1615  0F0F  00BD               	movwf	___flmul@b+3
  1616  0F10  0872               	movf	?___xxtofl+2,w
  1617  0F11  00BC               	movwf	___flmul@b+2
  1618  0F12  0871               	movf	?___xxtofl+1,w
  1619  0F13  00BB               	movwf	___flmul@b+1
  1620  0F14  0870               	movf	?___xxtofl,w
  1621  0F15  00BA               	movwf	___flmul@b
  1622  0F16  120A  118A  201D  120A  158A  	fcall	___flmul
  1623  0F1B  1283               	bcf	3,5	;RP0=0, select bank0
  1624  0F1C  1303               	bcf	3,6	;RP1=0, select bank0
  1625  0F1D  083D               	movf	?___flmul+3,w
  1626  0F1E  00D7               	movwf	___fladd@b+3
  1627  0F1F  083C               	movf	?___flmul+2,w
  1628  0F20  00D6               	movwf	___fladd@b+2
  1629  0F21  083B               	movf	?___flmul+1,w
  1630  0F22  00D5               	movwf	___fladd@b+1
  1631  0F23  083A               	movf	?___flmul,w
  1632  0F24  00D4               	movwf	___fladd@b
  1633  0F25  120A  118A  237E  120A  158A  	fcall	___fladd
  1634  0F2A  1283               	bcf	3,5	;RP0=0, select bank0
  1635  0F2B  1303               	bcf	3,6	;RP1=0, select bank0
  1636  0F2C  0857               	movf	?___fladd+3,w
  1637  0F2D  00EB               	movwf	___fltol@f1+3
  1638  0F2E  0856               	movf	?___fladd+2,w
  1639  0F2F  00EA               	movwf	___fltol@f1+2
  1640  0F30  0855               	movf	?___fladd+1,w
  1641  0F31  00E9               	movwf	___fltol@f1+1
  1642  0F32  0854               	movf	?___fladd,w
  1643  0F33  00E8               	movwf	___fltol@f1
  1644  0F34  120A  158A  25F8  120A  158A  	fcall	___fltol
  1645  0F39  1283               	bcf	3,5	;RP0=0, select bank0
  1646  0F3A  1303               	bcf	3,6	;RP1=0, select bank0
  1647  0F3B  0869               	movf	?___fltol+1,w
  1648  0F3C  1683               	bsf	3,5	;RP0=1, select bank1
  1649  0F3D  1303               	bcf	3,6	;RP1=0, select bank1
  1650  0F3E  00A6               	movwf	(?_interpole+1)^(0+128)
  1651  0F3F  1283               	bcf	3,5	;RP0=0, select bank0
  1652  0F40  1303               	bcf	3,6	;RP1=0, select bank0
  1653  0F41  0868               	movf	?___fltol,w
  1654  0F42  1683               	bsf	3,5	;RP0=1, select bank1
  1655  0F43  1303               	bcf	3,6	;RP1=0, select bank1
  1656  0F44  00A5               	movwf	?_interpole^(0+128)
  1657  0F45                     i1l102:
  1658  0F45  0008               	return
  1659  0F46                     __end_of_interpole:
  1660                           
  1661                           	psect	text6
  1662  0F46                     __ptext6:	
  1663 ;; *************** function ___xxtofl *****************
  1664 ;; Defined at:
  1665 ;;		line 10 in file "C:\Program Files\Microchip\xc8\v2.35\pic\sources\c90\common\xxtofl.c"
  1666 ;; Parameters:    Size  Location     Type
  1667 ;;  sign            1    wreg     unsigned char 
  1668 ;;  val             4    0[COMMON] long 
  1669 ;; Auto vars:     Size  Location     Type
  1670 ;;  sign            1    8[COMMON] unsigned char 
  1671 ;;  arg             4   10[COMMON] unsigned long 
  1672 ;;  exp             1    9[COMMON] unsigned char 
  1673 ;; Return value:  Size  Location     Type
  1674 ;;                  4    0[COMMON] unsigned char 
  1675 ;; Registers used:
  1676 ;;		wreg, status,2, status,0
  1677 ;; Tracked objects:
  1678 ;;		On entry : 0/0
  1679 ;;		On exit  : 0/0
  1680 ;;		Unchanged: 0/0
  1681 ;; Data sizes:     COMMON   BANK0   BANK1   BANK3   BANK2
  1682 ;;      Params:         4       0       0       0       0
  1683 ;;      Locals:         6       0       0       0       0
  1684 ;;      Temps:          4       0       0       0       0
  1685 ;;      Totals:        14       0       0       0       0
  1686 ;;Total ram usage:       14 bytes
  1687 ;; Hardware stack levels used: 1
  1688 ;; This function calls:
  1689 ;;		Nothing
  1690 ;; This function is called by:
  1691 ;;		_interpole
  1692 ;; This function uses a non-reentrant model
  1693 ;;
  1694                           
  1695  0F46                     ___xxtofl:	
  1696                           ;psect for function ___xxtofl
  1697                           
  1698                           
  1699                           ;incstack = 0
  1700                           ; Regs used in ___xxtofl: [wreg+status,2+status,0]
  1701                           ;___xxtofl@sign stored from wreg
  1702  0F46  00F8               	movwf	___xxtofl@sign
  1703  0F47                     i1l1954:
  1704  0F47  0878               	movf	___xxtofl@sign,w
  1705  0F48  1903               	btfsc	3,2
  1706  0F49  2F4B               	goto	u277_21
  1707  0F4A  2F4C               	goto	u277_20
  1708  0F4B                     u277_21:
  1709  0F4B  2F60               	goto	i1l1960
  1710  0F4C                     u277_20:
  1711  0F4C                     i1l1956:
  1712  0F4C  1FF3               	btfss	___xxtofl@val+3,7
  1713  0F4D  2F4F               	goto	u278_21
  1714  0F4E  2F50               	goto	u278_20
  1715  0F4F                     u278_21:
  1716  0F4F  2F60               	goto	i1l1960
  1717  0F50                     u278_20:
  1718  0F50                     i1l1958:
  1719  0F50  0970               	comf	___xxtofl@val,w
  1720  0F51  00FA               	movwf	___xxtofl@arg
  1721  0F52  0971               	comf	___xxtofl@val+1,w
  1722  0F53  00FB               	movwf	___xxtofl@arg+1
  1723  0F54  0972               	comf	___xxtofl@val+2,w
  1724  0F55  00FC               	movwf	___xxtofl@arg+2
  1725  0F56  0973               	comf	___xxtofl@val+3,w
  1726  0F57  00FD               	movwf	___xxtofl@arg+3
  1727  0F58  0AFA               	incf	___xxtofl@arg,f
  1728  0F59  1903               	skipnz
  1729  0F5A  0AFB               	incf	___xxtofl@arg+1,f
  1730  0F5B  1903               	skipnz
  1731  0F5C  0AFC               	incf	___xxtofl@arg+2,f
  1732  0F5D  1903               	skipnz
  1733  0F5E  0AFD               	incf	___xxtofl@arg+3,f
  1734  0F5F  2F68               	goto	i1l633
  1735  0F60                     i1l1960:
  1736  0F60  0873               	movf	___xxtofl@val+3,w
  1737  0F61  00FD               	movwf	___xxtofl@arg+3
  1738  0F62  0872               	movf	___xxtofl@val+2,w
  1739  0F63  00FC               	movwf	___xxtofl@arg+2
  1740  0F64  0871               	movf	___xxtofl@val+1,w
  1741  0F65  00FB               	movwf	___xxtofl@arg+1
  1742  0F66  0870               	movf	___xxtofl@val,w
  1743  0F67  00FA               	movwf	___xxtofl@arg
  1744  0F68                     i1l633:
  1745  0F68  0873               	movf	___xxtofl@val+3,w
  1746  0F69  0472               	iorwf	___xxtofl@val+2,w
  1747  0F6A  0471               	iorwf	___xxtofl@val+1,w
  1748  0F6B  0470               	iorwf	___xxtofl@val,w
  1749  0F6C  1D03               	skipz
  1750  0F6D  2F6F               	goto	u279_21
  1751  0F6E  2F70               	goto	u279_20
  1752  0F6F                     u279_21:
  1753  0F6F  2F79               	goto	i1l1966
  1754  0F70                     u279_20:
  1755  0F70                     i1l1962:
  1756  0F70  3000               	movlw	0
  1757  0F71  00F3               	movwf	?___xxtofl+3
  1758  0F72  3000               	movlw	0
  1759  0F73  00F2               	movwf	?___xxtofl+2
  1760  0F74  3000               	movlw	0
  1761  0F75  00F1               	movwf	?___xxtofl+1
  1762  0F76  3000               	movlw	0
  1763  0F77  00F0               	movwf	?___xxtofl
  1764  0F78  2FFF               	goto	i1l635
  1765  0F79                     i1l1966:
  1766  0F79  3096               	movlw	150
  1767  0F7A  00F4               	movwf	??___xxtofl
  1768  0F7B  0874               	movf	??___xxtofl,w
  1769  0F7C  00F9               	movwf	___xxtofl@exp
  1770  0F7D  2F8B               	goto	i1l1970
  1771  0F7E                     i1l1968:
  1772  0F7E  3001               	movlw	1
  1773  0F7F  00F4               	movwf	??___xxtofl
  1774  0F80  0874               	movf	??___xxtofl,w
  1775  0F81  07F9               	addwf	___xxtofl@exp,f
  1776  0F82  3001               	movlw	1
  1777  0F83                     u280_25:
  1778  0F83  1003               	clrc
  1779  0F84  0CFD               	rrf	___xxtofl@arg+3,f
  1780  0F85  0CFC               	rrf	___xxtofl@arg+2,f
  1781  0F86  0CFB               	rrf	___xxtofl@arg+1,f
  1782  0F87  0CFA               	rrf	___xxtofl@arg,f
  1783  0F88  3EFF               	addlw	-1
  1784  0F89  1D03               	skipz
  1785  0F8A  2F83               	goto	u280_25
  1786  0F8B                     i1l1970:
  1787  0F8B  30FE               	movlw	254
  1788  0F8C  057D               	andwf	___xxtofl@arg+3,w
  1789  0F8D  1D03               	btfss	3,2
  1790  0F8E  2F90               	goto	u281_21
  1791  0F8F  2F91               	goto	u281_20
  1792  0F90                     u281_21:
  1793  0F90  2F7E               	goto	i1l1968
  1794  0F91                     u281_20:
  1795  0F91  2FAD               	goto	i1l639
  1796  0F92                     i1l1972:
  1797  0F92  3001               	movlw	1
  1798  0F93  00F4               	movwf	??___xxtofl
  1799  0F94  0874               	movf	??___xxtofl,w
  1800  0F95  07F9               	addwf	___xxtofl@exp,f
  1801  0F96                     i1l1974:
  1802  0F96  3001               	movlw	1
  1803  0F97  07FA               	addwf	___xxtofl@arg,f
  1804  0F98  3000               	movlw	0
  1805  0F99  1803               	skipnc
  1806  0F9A  3001               	movlw	1
  1807  0F9B  07FB               	addwf	___xxtofl@arg+1,f
  1808  0F9C  3000               	movlw	0
  1809  0F9D  1803               	skipnc
  1810  0F9E  3001               	movlw	1
  1811  0F9F  07FC               	addwf	___xxtofl@arg+2,f
  1812  0FA0  3000               	movlw	0
  1813  0FA1  1803               	skipnc
  1814  0FA2  3001               	movlw	1
  1815  0FA3  07FD               	addwf	___xxtofl@arg+3,f
  1816  0FA4                     i1l1976:
  1817  0FA4  3001               	movlw	1
  1818  0FA5                     u282_25:
  1819  0FA5  1003               	clrc
  1820  0FA6  0CFD               	rrf	___xxtofl@arg+3,f
  1821  0FA7  0CFC               	rrf	___xxtofl@arg+2,f
  1822  0FA8  0CFB               	rrf	___xxtofl@arg+1,f
  1823  0FA9  0CFA               	rrf	___xxtofl@arg,f
  1824  0FAA  3EFF               	addlw	-1
  1825  0FAB  1D03               	skipz
  1826  0FAC  2FA5               	goto	u282_25
  1827  0FAD                     i1l639:
  1828  0FAD  30FF               	movlw	255
  1829  0FAE  057D               	andwf	___xxtofl@arg+3,w
  1830  0FAF  1D03               	btfss	3,2
  1831  0FB0  2FB2               	goto	u283_21
  1832  0FB1  2FB3               	goto	u283_20
  1833  0FB2                     u283_21:
  1834  0FB2  2F92               	goto	i1l1972
  1835  0FB3                     u283_20:
  1836  0FB3  2FBF               	goto	i1l1980
  1837  0FB4                     i1l1978:
  1838  0FB4  3001               	movlw	1
  1839  0FB5  02F9               	subwf	___xxtofl@exp,f
  1840  0FB6  3001               	movlw	1
  1841  0FB7  00F4               	movwf	??___xxtofl
  1842  0FB8                     u284_25:
  1843  0FB8  1003               	clrc
  1844  0FB9  0DFA               	rlf	___xxtofl@arg,f
  1845  0FBA  0DFB               	rlf	___xxtofl@arg+1,f
  1846  0FBB  0DFC               	rlf	___xxtofl@arg+2,f
  1847  0FBC  0DFD               	rlf	___xxtofl@arg+3,f
  1848  0FBD  0BF4               	decfsz	??___xxtofl,f
  1849  0FBE  2FB8               	goto	u284_25
  1850  0FBF                     i1l1980:
  1851  0FBF  1BFC               	btfsc	___xxtofl@arg+2,7
  1852  0FC0  2FC2               	goto	u285_21
  1853  0FC1  2FC3               	goto	u285_20
  1854  0FC2                     u285_21:
  1855  0FC2  2FC9               	goto	i1l646
  1856  0FC3                     u285_20:
  1857  0FC3                     i1l1982:
  1858  0FC3  3002               	movlw	2
  1859  0FC4  0279               	subwf	___xxtofl@exp,w
  1860  0FC5  1803               	skipnc
  1861  0FC6  2FC8               	goto	u286_21
  1862  0FC7  2FC9               	goto	u286_20
  1863  0FC8                     u286_21:
  1864  0FC8  2FB4               	goto	i1l1978
  1865  0FC9                     u286_20:
  1866  0FC9                     i1l646:
  1867  0FC9  1879               	btfsc	___xxtofl@exp,0
  1868  0FCA  2FCC               	goto	u287_21
  1869  0FCB  2FCD               	goto	u287_20
  1870  0FCC                     u287_21:
  1871  0FCC  2FD5               	goto	i1l647
  1872  0FCD                     u287_20:
  1873  0FCD                     i1l1984:
  1874  0FCD  30FF               	movlw	255
  1875  0FCE  05FA               	andwf	___xxtofl@arg,f
  1876  0FCF  30FF               	movlw	255
  1877  0FD0  05FB               	andwf	___xxtofl@arg+1,f
  1878  0FD1  307F               	movlw	127
  1879  0FD2  05FC               	andwf	___xxtofl@arg+2,f
  1880  0FD3  30FF               	movlw	255
  1881  0FD4  05FD               	andwf	___xxtofl@arg+3,f
  1882  0FD5                     i1l647:
  1883  0FD5  1003               	clrc
  1884  0FD6  0CF9               	rrf	___xxtofl@exp,f
  1885  0FD7                     i1l1986:
  1886  0FD7  0879               	movf	___xxtofl@exp,w
  1887  0FD8  00F4               	movwf	??___xxtofl
  1888  0FD9  01F5               	clrf	??___xxtofl+1
  1889  0FDA  01F6               	clrf	??___xxtofl+2
  1890  0FDB  01F7               	clrf	??___xxtofl+3
  1891  0FDC  3018               	movlw	24
  1892  0FDD                     u288_25:
  1893  0FDD  1003               	clrc
  1894  0FDE  0DF4               	rlf	??___xxtofl,f
  1895  0FDF  0DF5               	rlf	??___xxtofl+1,f
  1896  0FE0  0DF6               	rlf	??___xxtofl+2,f
  1897  0FE1  0DF7               	rlf	??___xxtofl+3,f
  1898  0FE2                     u288_20:
  1899  0FE2  3EFF               	addlw	-1
  1900  0FE3  1D03               	skipz
  1901  0FE4  2FDD               	goto	u288_25
  1902  0FE5  0874               	movf	??___xxtofl,w
  1903  0FE6  04FA               	iorwf	___xxtofl@arg,f
  1904  0FE7  0875               	movf	??___xxtofl+1,w
  1905  0FE8  04FB               	iorwf	___xxtofl@arg+1,f
  1906  0FE9  0876               	movf	??___xxtofl+2,w
  1907  0FEA  04FC               	iorwf	___xxtofl@arg+2,f
  1908  0FEB  0877               	movf	??___xxtofl+3,w
  1909  0FEC  04FD               	iorwf	___xxtofl@arg+3,f
  1910  0FED                     i1l1988:
  1911  0FED  0878               	movf	___xxtofl@sign,w
  1912  0FEE  1903               	btfsc	3,2
  1913  0FEF  2FF1               	goto	u289_21
  1914  0FF0  2FF2               	goto	u289_20
  1915  0FF1                     u289_21:
  1916  0FF1  2FF7               	goto	i1l1994
  1917  0FF2                     u289_20:
  1918  0FF2                     i1l1990:
  1919  0FF2  1FF3               	btfss	___xxtofl@val+3,7
  1920  0FF3  2FF5               	goto	u290_21
  1921  0FF4  2FF6               	goto	u290_20
  1922  0FF5                     u290_21:
  1923  0FF5  2FF7               	goto	i1l1994
  1924  0FF6                     u290_20:
  1925  0FF6                     i1l1992:
  1926  0FF6  17FD               	bsf	___xxtofl@arg+3,7
  1927  0FF7                     i1l1994:
  1928  0FF7  087D               	movf	___xxtofl@arg+3,w
  1929  0FF8  00F3               	movwf	?___xxtofl+3
  1930  0FF9  087C               	movf	___xxtofl@arg+2,w
  1931  0FFA  00F2               	movwf	?___xxtofl+2
  1932  0FFB  087B               	movf	___xxtofl@arg+1,w
  1933  0FFC  00F1               	movwf	?___xxtofl+1
  1934  0FFD  087A               	movf	___xxtofl@arg,w
  1935  0FFE  00F0               	movwf	?___xxtofl
  1936  0FFF                     i1l635:
  1937  0FFF  0008               	return
  1938  1000                     __end_of___xxtofl:
  1939                           
  1940                           	psect	text7
  1941  0DF8                     __ptext7:	
  1942 ;; *************** function ___fltol *****************
  1943 ;; Defined at:
  1944 ;;		line 43 in file "C:\Program Files\Microchip\xc8\v2.35\pic\sources\c90\common\fltol.c"
  1945 ;; Parameters:    Size  Location     Type
  1946 ;;  f1              4   72[BANK0 ] unsigned char 
  1947 ;; Auto vars:     Size  Location     Type
  1948 ;;  exp1            1   77[BANK0 ] unsigned char 
  1949 ;;  sign1           1   76[BANK0 ] unsigned char 
  1950 ;; Return value:  Size  Location     Type
  1951 ;;                  4   72[BANK0 ] long 
  1952 ;; Registers used:
  1953 ;;		wreg, status,2, status,0
  1954 ;; Tracked objects:
  1955 ;;		On entry : 0/0
  1956 ;;		On exit  : 0/0
  1957 ;;		Unchanged: 0/0
  1958 ;; Data sizes:     COMMON   BANK0   BANK1   BANK3   BANK2
  1959 ;;      Params:         0       4       0       0       0
  1960 ;;      Locals:         0       2       0       0       0
  1961 ;;      Temps:          0       0       5       0       0
  1962 ;;      Totals:         0       6       5       0       0
  1963 ;;Total ram usage:       11 bytes
  1964 ;; Hardware stack levels used: 1
  1965 ;; This function calls:
  1966 ;;		Nothing
  1967 ;; This function is called by:
  1968 ;;		_interpole
  1969 ;; This function uses a non-reentrant model
  1970 ;;
  1971                           
  1972  0DF8                     ___fltol:	
  1973                           ;psect for function ___fltol
  1974                           
  1975  0DF8                     i1l1442:	
  1976                           ;incstack = 0
  1977                           ; Regs used in ___fltol: [wreg+status,2+status,0]
  1978                           
  1979  0DF8  1003               	clrc
  1980  0DF9  1283               	bcf	3,5	;RP0=0, select bank0
  1981  0DFA  1303               	bcf	3,6	;RP1=0, select bank0
  1982  0DFB  0D6A               	rlf	___fltol@f1+2,w
  1983  0DFC  0D6B               	rlf	___fltol@f1+3,w
  1984  0DFD  1683               	bsf	3,5	;RP0=1, select bank1
  1985  0DFE  1303               	bcf	3,6	;RP1=0, select bank1
  1986  0DFF  00A0               	movwf	??___fltol^(0+128)
  1987  0E00  0820               	movf	??___fltol^(0+128),w
  1988  0E01  1283               	bcf	3,5	;RP0=0, select bank0
  1989  0E02  1303               	bcf	3,6	;RP1=0, select bank0
  1990  0E03  00ED               	movwf	___fltol@exp1
  1991  0E04  086D               	movf	___fltol@exp1,w
  1992  0E05  1D03               	btfss	3,2
  1993  0E06  2E08               	goto	u155_21
  1994  0E07  2E09               	goto	u155_20
  1995  0E08                     u155_21:
  1996  0E08  2E12               	goto	i1l1448
  1997  0E09                     u155_20:
  1998  0E09                     i1l1444:
  1999  0E09  3000               	movlw	0
  2000  0E0A  00EB               	movwf	?___fltol+3
  2001  0E0B  3000               	movlw	0
  2002  0E0C  00EA               	movwf	?___fltol+2
  2003  0E0D  3000               	movlw	0
  2004  0E0E  00E9               	movwf	?___fltol+1
  2005  0E0F  3000               	movlw	0
  2006  0E10  00E8               	movwf	?___fltol
  2007  0E11  2E93               	goto	i1l386
  2008  0E12                     i1l1448:
  2009  0E12  0868               	movf	___fltol@f1,w
  2010  0E13  1683               	bsf	3,5	;RP0=1, select bank1
  2011  0E14  1303               	bcf	3,6	;RP1=0, select bank1
  2012  0E15  00A0               	movwf	??___fltol^(0+128)
  2013  0E16  1283               	bcf	3,5	;RP0=0, select bank0
  2014  0E17  1303               	bcf	3,6	;RP1=0, select bank0
  2015  0E18  0869               	movf	___fltol@f1+1,w
  2016  0E19  1683               	bsf	3,5	;RP0=1, select bank1
  2017  0E1A  1303               	bcf	3,6	;RP1=0, select bank1
  2018  0E1B  00A1               	movwf	(??___fltol^(0+128)+1)
  2019  0E1C  1283               	bcf	3,5	;RP0=0, select bank0
  2020  0E1D  1303               	bcf	3,6	;RP1=0, select bank0
  2021  0E1E  086A               	movf	___fltol@f1+2,w
  2022  0E1F  1683               	bsf	3,5	;RP0=1, select bank1
  2023  0E20  1303               	bcf	3,6	;RP1=0, select bank1
  2024  0E21  00A2               	movwf	(??___fltol^(0+128)+2)
  2025  0E22  1283               	bcf	3,5	;RP0=0, select bank0
  2026  0E23  1303               	bcf	3,6	;RP1=0, select bank0
  2027  0E24  086B               	movf	___fltol@f1+3,w
  2028  0E25  1683               	bsf	3,5	;RP0=1, select bank1
  2029  0E26  1303               	bcf	3,6	;RP1=0, select bank1
  2030  0E27  00A3               	movwf	(??___fltol^(0+128)+3)
  2031  0E28  301F               	movlw	31
  2032  0E29                     u156_25:
  2033  0E29  1003               	clrc
  2034  0E2A  0CA3               	rrf	(??___fltol^(0+128)+3),f
  2035  0E2B  0CA2               	rrf	(??___fltol^(0+128)+2),f
  2036  0E2C  0CA1               	rrf	(??___fltol^(0+128)+1),f
  2037  0E2D  0CA0               	rrf	??___fltol^(0+128),f
  2038  0E2E                     u156_20:
  2039  0E2E  3EFF               	addlw	-1
  2040  0E2F  1D03               	skipz
  2041  0E30  2E29               	goto	u156_25
  2042  0E31  0820               	movf	??___fltol^(0+128),w
  2043  0E32  00A4               	movwf	(??___fltol+4)^(0+128)
  2044  0E33  0824               	movf	(??___fltol+4)^(0+128),w
  2045  0E34  1283               	bcf	3,5	;RP0=0, select bank0
  2046  0E35  1303               	bcf	3,6	;RP1=0, select bank0
  2047  0E36  00EC               	movwf	___fltol@sign1
  2048  0E37                     i1l1450:
  2049  0E37  17EA               	bsf	___fltol@f1+2,7
  2050  0E38                     i1l1452:
  2051  0E38  30FF               	movlw	255
  2052  0E39  05E8               	andwf	___fltol@f1,f
  2053  0E3A  30FF               	movlw	255
  2054  0E3B  05E9               	andwf	___fltol@f1+1,f
  2055  0E3C  30FF               	movlw	255
  2056  0E3D  05EA               	andwf	___fltol@f1+2,f
  2057  0E3E  3000               	movlw	0
  2058  0E3F  05EB               	andwf	___fltol@f1+3,f
  2059  0E40                     i1l1454:
  2060  0E40  3096               	movlw	150
  2061  0E41  02ED               	subwf	___fltol@exp1,f
  2062  0E42                     i1l1456:
  2063  0E42  1FED               	btfss	___fltol@exp1,7
  2064  0E43  2E45               	goto	u157_21
  2065  0E44  2E46               	goto	u157_20
  2066  0E45                     u157_21:
  2067  0E45  2E64               	goto	i1l1466
  2068  0E46                     u157_20:
  2069  0E46                     i1l1458:
  2070  0E46  086D               	movf	___fltol@exp1,w
  2071  0E47  3A80               	xorlw	128
  2072  0E48  3E97               	addlw	151
  2073  0E49  1803               	skipnc
  2074  0E4A  2E4C               	goto	u158_21
  2075  0E4B  2E4D               	goto	u158_20
  2076  0E4C                     u158_21:
  2077  0E4C  2E4E               	goto	i1l1464
  2078  0E4D                     u158_20:
  2079  0E4D  2E09               	goto	i1l1444
  2080  0E4E                     i1l1464:
  2081  0E4E  3001               	movlw	1
  2082  0E4F                     u159_25:
  2083  0E4F  1003               	clrc
  2084  0E50  0CEB               	rrf	___fltol@f1+3,f
  2085  0E51  0CEA               	rrf	___fltol@f1+2,f
  2086  0E52  0CE9               	rrf	___fltol@f1+1,f
  2087  0E53  0CE8               	rrf	___fltol@f1,f
  2088  0E54  3EFF               	addlw	-1
  2089  0E55  1D03               	skipz
  2090  0E56  2E4F               	goto	u159_25
  2091  0E57  3001               	movlw	1
  2092  0E58  1683               	bsf	3,5	;RP0=1, select bank1
  2093  0E59  1303               	bcf	3,6	;RP1=0, select bank1
  2094  0E5A  00A0               	movwf	??___fltol^(0+128)
  2095  0E5B  0820               	movf	??___fltol^(0+128),w
  2096  0E5C  1283               	bcf	3,5	;RP0=0, select bank0
  2097  0E5D  1303               	bcf	3,6	;RP1=0, select bank0
  2098  0E5E  07ED               	addwf	___fltol@exp1,f
  2099  0E5F  1D03               	btfss	3,2
  2100  0E60  2E62               	goto	u160_21
  2101  0E61  2E63               	goto	u160_20
  2102  0E62                     u160_21:
  2103  0E62  2E4E               	goto	i1l1464
  2104  0E63                     u160_20:
  2105  0E63  2E83               	goto	i1l1474
  2106  0E64                     i1l1466:
  2107  0E64  3020               	movlw	32
  2108  0E65  026D               	subwf	___fltol@exp1,w
  2109  0E66  1C03               	skipc
  2110  0E67  2E69               	goto	u161_21
  2111  0E68  2E6A               	goto	u161_20
  2112  0E69                     u161_21:
  2113  0E69  2E7E               	goto	i1l393
  2114  0E6A                     u161_20:
  2115  0E6A  2E09               	goto	i1l1444
  2116  0E6B                     i1l1472:
  2117  0E6B  3001               	movlw	1
  2118  0E6C  1683               	bsf	3,5	;RP0=1, select bank1
  2119  0E6D  1303               	bcf	3,6	;RP1=0, select bank1
  2120  0E6E  00A0               	movwf	??___fltol^(0+128)
  2121  0E6F                     u162_25:
  2122  0E6F  1003               	clrc
  2123  0E70  1283               	bcf	3,5	;RP0=0, select bank0
  2124  0E71  1303               	bcf	3,6	;RP1=0, select bank0
  2125  0E72  0DE8               	rlf	___fltol@f1,f
  2126  0E73  0DE9               	rlf	___fltol@f1+1,f
  2127  0E74  0DEA               	rlf	___fltol@f1+2,f
  2128  0E75  0DEB               	rlf	___fltol@f1+3,f
  2129  0E76  1683               	bsf	3,5	;RP0=1, select bank1
  2130  0E77  1303               	bcf	3,6	;RP1=0, select bank1
  2131  0E78  0BA0               	decfsz	??___fltol^(0+128),f
  2132  0E79  2E6F               	goto	u162_25
  2133  0E7A  3001               	movlw	1
  2134  0E7B  1283               	bcf	3,5	;RP0=0, select bank0
  2135  0E7C  1303               	bcf	3,6	;RP1=0, select bank0
  2136  0E7D  02ED               	subwf	___fltol@exp1,f
  2137  0E7E                     i1l393:
  2138  0E7E  086D               	movf	___fltol@exp1,w
  2139  0E7F  1D03               	btfss	3,2
  2140  0E80  2E82               	goto	u163_21
  2141  0E81  2E83               	goto	u163_20
  2142  0E82                     u163_21:
  2143  0E82  2E6B               	goto	i1l1472
  2144  0E83                     u163_20:
  2145  0E83                     i1l1474:
  2146  0E83  086C               	movf	___fltol@sign1,w
  2147  0E84  1903               	btfsc	3,2
  2148  0E85  2E87               	goto	u164_21
  2149  0E86  2E88               	goto	u164_20
  2150  0E87                     u164_21:
  2151  0E87  2E93               	goto	i1l396
  2152  0E88                     u164_20:
  2153  0E88                     i1l1476:
  2154  0E88  09E8               	comf	___fltol@f1,f
  2155  0E89  09E9               	comf	___fltol@f1+1,f
  2156  0E8A  09EA               	comf	___fltol@f1+2,f
  2157  0E8B  09EB               	comf	___fltol@f1+3,f
  2158  0E8C  0AE8               	incf	___fltol@f1,f
  2159  0E8D  1903               	skipnz
  2160  0E8E  0AE9               	incf	___fltol@f1+1,f
  2161  0E8F  1903               	skipnz
  2162  0E90  0AEA               	incf	___fltol@f1+2,f
  2163  0E91  1903               	skipnz
  2164  0E92  0AEB               	incf	___fltol@f1+3,f
  2165  0E93                     i1l396:
  2166  0E93                     i1l386:
  2167  0E93  0008               	return
  2168  0E94                     __end_of___fltol:
  2169                           
  2170                           	psect	text8
  2171  001D                     __ptext8:	
  2172 ;; *************** function ___flmul *****************
  2173 ;; Defined at:
  2174 ;;		line 8 in file "C:\Program Files\Microchip\xc8\v2.35\pic\sources\c90\common\sprcmul.c"
  2175 ;; Parameters:    Size  Location     Type
  2176 ;;  b               4   26[BANK0 ] long 
  2177 ;;  a               4   30[BANK0 ] long 
  2178 ;; Auto vars:     Size  Location     Type
  2179 ;;  prod            4   46[BANK0 ] struct .
  2180 ;;  grs             4   40[BANK0 ] unsigned long 
  2181 ;;  temp            2   50[BANK0 ] struct .
  2182 ;;  bexp            1   45[BANK0 ] unsigned char 
  2183 ;;  aexp            1   44[BANK0 ] unsigned char 
  2184 ;;  sign            1   39[BANK0 ] unsigned char 
  2185 ;; Return value:  Size  Location     Type
  2186 ;;                  4   26[BANK0 ] unsigned char 
  2187 ;; Registers used:
  2188 ;;		wreg, status,2, status,0, btemp+1, pclath, cstack
  2189 ;; Tracked objects:
  2190 ;;		On entry : 0/0
  2191 ;;		On exit  : 0/0
  2192 ;;		Unchanged: 0/0
  2193 ;; Data sizes:     COMMON   BANK0   BANK1   BANK3   BANK2
  2194 ;;      Params:         0       8       0       0       0
  2195 ;;      Locals:         0      13       0       0       0
  2196 ;;      Temps:          0       5       0       0       0
  2197 ;;      Totals:         0      26       0       0       0
  2198 ;;Total ram usage:       26 bytes
  2199 ;; Hardware stack levels used: 1
  2200 ;; Hardware stack levels required when called: 1
  2201 ;; This function calls:
  2202 ;;		__Umul8_16
  2203 ;; This function is called by:
  2204 ;;		_interpole
  2205 ;; This function uses a non-reentrant model
  2206 ;;
  2207                           
  2208  001D                     ___flmul:	
  2209                           ;psect for function ___flmul
  2210                           
  2211  001D                     i1l1814:	
  2212                           ;incstack = 0
  2213                           ; Regs used in ___flmul: [wreg+status,2+status,0+btemp+1+pclath+cstack]
  2214                           
  2215  001D  1283               	bcf	3,5	;RP0=0, select bank0
  2216  001E  1303               	bcf	3,6	;RP1=0, select bank0
  2217  001F  083D               	movf	___flmul@b+3,w
  2218  0020  3980               	andlw	128
  2219  0021  00C2               	movwf	??___flmul
  2220  0022  0842               	movf	??___flmul,w
  2221  0023  00C7               	movwf	___flmul@sign
  2222  0024                     i1l1816:
  2223  0024  083D               	movf	___flmul@b+3,w
  2224  0025  00C2               	movwf	??___flmul
  2225  0026  0742               	addwf	??___flmul,w
  2226  0027  00C3               	movwf	??___flmul+1
  2227  0028  0843               	movf	??___flmul+1,w
  2228  0029  00CD               	movwf	___flmul@bexp
  2229  002A                     i1l1818:
  2230  002A  1FBC               	btfss	___flmul@b+2,7
  2231  002B  282D               	goto	u240_21
  2232  002C  282E               	goto	u240_20
  2233  002D                     u240_21:
  2234  002D  282F               	goto	i1l1822
  2235  002E                     u240_20:
  2236  002E                     i1l1820:
  2237  002E  144D               	bsf	___flmul@bexp,0
  2238  002F                     i1l1822:
  2239  002F  084D               	movf	___flmul@bexp,w
  2240  0030  1903               	btfsc	3,2
  2241  0031  2833               	goto	u241_21
  2242  0032  2834               	goto	u241_20
  2243  0033                     u241_21:
  2244  0033  2843               	goto	i1l1830
  2245  0034                     u241_20:
  2246  0034                     i1l1824:
  2247  0034  0A4D               	incf	___flmul@bexp,w
  2248  0035  1D03               	btfss	3,2
  2249  0036  2838               	goto	u242_21
  2250  0037  2839               	goto	u242_20
  2251  0038                     u242_21:
  2252  0038  2841               	goto	i1l1828
  2253  0039                     u242_20:
  2254  0039                     i1l1826:
  2255  0039  3000               	movlw	0
  2256  003A  00BD               	movwf	___flmul@b+3
  2257  003B  3000               	movlw	0
  2258  003C  00BC               	movwf	___flmul@b+2
  2259  003D  3000               	movlw	0
  2260  003E  00BB               	movwf	___flmul@b+1
  2261  003F  3000               	movlw	0
  2262  0040  00BA               	movwf	___flmul@b
  2263  0041                     i1l1828:
  2264  0041  17BC               	bsf	___flmul@b+2,7
  2265  0042  284B               	goto	i1l1832
  2266  0043                     i1l1830:
  2267  0043  3000               	movlw	0
  2268  0044  00BD               	movwf	___flmul@b+3
  2269  0045  3000               	movlw	0
  2270  0046  00BC               	movwf	___flmul@b+2
  2271  0047  3000               	movlw	0
  2272  0048  00BB               	movwf	___flmul@b+1
  2273  0049  3000               	movlw	0
  2274  004A  00BA               	movwf	___flmul@b
  2275  004B                     i1l1832:
  2276  004B  0841               	movf	___flmul@a+3,w
  2277  004C  3980               	andlw	128
  2278  004D  00C2               	movwf	??___flmul
  2279  004E  0842               	movf	??___flmul,w
  2280  004F  06C7               	xorwf	___flmul@sign,f
  2281  0050                     i1l1834:
  2282  0050  0841               	movf	___flmul@a+3,w
  2283  0051  00C2               	movwf	??___flmul
  2284  0052  0742               	addwf	??___flmul,w
  2285  0053  00C3               	movwf	??___flmul+1
  2286  0054  0843               	movf	??___flmul+1,w
  2287  0055  00CC               	movwf	___flmul@aexp
  2288  0056                     i1l1836:
  2289  0056  1FC0               	btfss	___flmul@a+2,7
  2290  0057  2859               	goto	u243_21
  2291  0058  285A               	goto	u243_20
  2292  0059                     u243_21:
  2293  0059  285B               	goto	i1l1840
  2294  005A                     u243_20:
  2295  005A                     i1l1838:
  2296  005A  144C               	bsf	___flmul@aexp,0
  2297  005B                     i1l1840:
  2298  005B  084C               	movf	___flmul@aexp,w
  2299  005C  1903               	btfsc	3,2
  2300  005D  285F               	goto	u244_21
  2301  005E  2860               	goto	u244_20
  2302  005F                     u244_21:
  2303  005F  286F               	goto	i1l1848
  2304  0060                     u244_20:
  2305  0060                     i1l1842:
  2306  0060  0A4C               	incf	___flmul@aexp,w
  2307  0061  1D03               	btfss	3,2
  2308  0062  2864               	goto	u245_21
  2309  0063  2865               	goto	u245_20
  2310  0064                     u245_21:
  2311  0064  286D               	goto	i1l1846
  2312  0065                     u245_20:
  2313  0065                     i1l1844:
  2314  0065  3000               	movlw	0
  2315  0066  00C1               	movwf	___flmul@a+3
  2316  0067  3000               	movlw	0
  2317  0068  00C0               	movwf	___flmul@a+2
  2318  0069  3000               	movlw	0
  2319  006A  00BF               	movwf	___flmul@a+1
  2320  006B  3000               	movlw	0
  2321  006C  00BE               	movwf	___flmul@a
  2322  006D                     i1l1846:
  2323  006D  17C0               	bsf	___flmul@a+2,7
  2324  006E  2877               	goto	i1l1850
  2325  006F                     i1l1848:
  2326  006F  3000               	movlw	0
  2327  0070  00C1               	movwf	___flmul@a+3
  2328  0071  3000               	movlw	0
  2329  0072  00C0               	movwf	___flmul@a+2
  2330  0073  3000               	movlw	0
  2331  0074  00BF               	movwf	___flmul@a+1
  2332  0075  3000               	movlw	0
  2333  0076  00BE               	movwf	___flmul@a
  2334  0077                     i1l1850:
  2335  0077  084C               	movf	___flmul@aexp,w
  2336  0078  1903               	btfsc	3,2
  2337  0079  287B               	goto	u246_21
  2338  007A  287C               	goto	u246_20
  2339  007B                     u246_21:
  2340  007B  2881               	goto	i1l1854
  2341  007C                     u246_20:
  2342  007C                     i1l1852:
  2343  007C  084D               	movf	___flmul@bexp,w
  2344  007D  1D03               	btfss	3,2
  2345  007E  2880               	goto	u247_21
  2346  007F  2881               	goto	u247_20
  2347  0080                     u247_21:
  2348  0080  288A               	goto	i1l1858
  2349  0081                     u247_20:
  2350  0081                     i1l1854:
  2351  0081  3000               	movlw	0
  2352  0082  00BD               	movwf	?___flmul+3
  2353  0083  3000               	movlw	0
  2354  0084  00BC               	movwf	?___flmul+2
  2355  0085  3000               	movlw	0
  2356  0086  00BB               	movwf	?___flmul+1
  2357  0087  3000               	movlw	0
  2358  0088  00BA               	movwf	?___flmul
  2359  0089  2B7D               	goto	i1l589
  2360  008A                     i1l1858:
  2361  008A  083A               	movf	___flmul@b,w
  2362  008B  00C2               	movwf	??___flmul
  2363  008C  0842               	movf	??___flmul,w
  2364  008D  00F0               	movwf	__Umul8_16@multiplicand
  2365  008E  0840               	movf	___flmul@a+2,w
  2366  008F  120A  158A  2408  120A  118A  	fcall	__Umul8_16
  2367  0094  0871               	movf	?__Umul8_16+1,w
  2368  0095  1283               	bcf	3,5	;RP0=0, select bank0
  2369  0096  1303               	bcf	3,6	;RP1=0, select bank0
  2370  0097  00D3               	movwf	___flmul@temp+1
  2371  0098  0870               	movf	?__Umul8_16,w
  2372  0099  00D2               	movwf	___flmul@temp
  2373  009A                     i1l1860:
  2374  009A  0852               	movf	___flmul@temp,w
  2375  009B  00C2               	movwf	??___flmul
  2376  009C  01C3               	clrf	??___flmul+1
  2377  009D  01C4               	clrf	??___flmul+2
  2378  009E  01C5               	clrf	??___flmul+3
  2379  009F  0845               	movf	??___flmul+3,w
  2380  00A0  00CB               	movwf	___flmul@grs+3
  2381  00A1  0844               	movf	??___flmul+2,w
  2382  00A2  00CA               	movwf	___flmul@grs+2
  2383  00A3  0843               	movf	??___flmul+1,w
  2384  00A4  00C9               	movwf	___flmul@grs+1
  2385  00A5  0842               	movf	??___flmul,w
  2386  00A6  00C8               	movwf	___flmul@grs
  2387  00A7                     i1l1862:
  2388  00A7  0853               	movf	___flmul@temp+1,w
  2389  00A8  00C2               	movwf	??___flmul
  2390  00A9  01C3               	clrf	??___flmul+1
  2391  00AA  01C4               	clrf	??___flmul+2
  2392  00AB  01C5               	clrf	??___flmul+3
  2393  00AC  0845               	movf	??___flmul+3,w
  2394  00AD  00D1               	movwf	___flmul@prod+3
  2395  00AE  0844               	movf	??___flmul+2,w
  2396  00AF  00D0               	movwf	___flmul@prod+2
  2397  00B0  0843               	movf	??___flmul+1,w
  2398  00B1  00CF               	movwf	___flmul@prod+1
  2399  00B2  0842               	movf	??___flmul,w
  2400  00B3  00CE               	movwf	___flmul@prod
  2401  00B4  083B               	movf	___flmul@b+1,w
  2402  00B5  00C2               	movwf	??___flmul
  2403  00B6  0842               	movf	??___flmul,w
  2404  00B7  00F0               	movwf	__Umul8_16@multiplicand
  2405  00B8  083F               	movf	___flmul@a+1,w
  2406  00B9  120A  158A  2408  120A  118A  	fcall	__Umul8_16
  2407  00BE  0871               	movf	?__Umul8_16+1,w
  2408  00BF  1283               	bcf	3,5	;RP0=0, select bank0
  2409  00C0  1303               	bcf	3,6	;RP1=0, select bank0
  2410  00C1  00D3               	movwf	___flmul@temp+1
  2411  00C2  0870               	movf	?__Umul8_16,w
  2412  00C3  00D2               	movwf	___flmul@temp
  2413  00C4                     i1l1864:
  2414  00C4  0852               	movf	___flmul@temp,w
  2415  00C5  00C2               	movwf	??___flmul
  2416  00C6  01C3               	clrf	??___flmul+1
  2417  00C7  01C4               	clrf	??___flmul+2
  2418  00C8  01C5               	clrf	??___flmul+3
  2419  00C9  0842               	movf	??___flmul,w
  2420  00CA  07C8               	addwf	___flmul@grs,f
  2421  00CB  0843               	movf	??___flmul+1,w
  2422  00CC  1103               	clrz
  2423  00CD  1803               	skipnc
  2424  00CE  3E01               	addlw	1
  2425  00CF  1903               	skipnz
  2426  00D0  28D2               	goto	u248_21
  2427  00D1  07C9               	addwf	___flmul@grs+1,f
  2428  00D2                     u248_21:
  2429  00D2  0844               	movf	??___flmul+2,w
  2430  00D3  1103               	clrz
  2431  00D4  1803               	skipnc
  2432  00D5  3E01               	addlw	1
  2433  00D6  1903               	skipnz
  2434  00D7  28D9               	goto	u248_22
  2435  00D8  07CA               	addwf	___flmul@grs+2,f
  2436  00D9                     u248_22:
  2437  00D9  0845               	movf	??___flmul+3,w
  2438  00DA  1103               	clrz
  2439  00DB  1803               	skipnc
  2440  00DC  3E01               	addlw	1
  2441  00DD  1903               	skipnz
  2442  00DE  28E0               	goto	u248_23
  2443  00DF  07CB               	addwf	___flmul@grs+3,f
  2444  00E0                     u248_23:
  2445  00E0                     i1l1866:
  2446  00E0  0853               	movf	___flmul@temp+1,w
  2447  00E1  00C2               	movwf	??___flmul
  2448  00E2  01C3               	clrf	??___flmul+1
  2449  00E3  01C4               	clrf	??___flmul+2
  2450  00E4  01C5               	clrf	??___flmul+3
  2451  00E5  0842               	movf	??___flmul,w
  2452  00E6  07CE               	addwf	___flmul@prod,f
  2453  00E7  0843               	movf	??___flmul+1,w
  2454  00E8  1103               	clrz
  2455  00E9  1803               	skipnc
  2456  00EA  3E01               	addlw	1
  2457  00EB  1903               	skipnz
  2458  00EC  28EE               	goto	u249_21
  2459  00ED  07CF               	addwf	___flmul@prod+1,f
  2460  00EE                     u249_21:
  2461  00EE  0844               	movf	??___flmul+2,w
  2462  00EF  1103               	clrz
  2463  00F0  1803               	skipnc
  2464  00F1  3E01               	addlw	1
  2465  00F2  1903               	skipnz
  2466  00F3  28F5               	goto	u249_22
  2467  00F4  07D0               	addwf	___flmul@prod+2,f
  2468  00F5                     u249_22:
  2469  00F5  0845               	movf	??___flmul+3,w
  2470  00F6  1103               	clrz
  2471  00F7  1803               	skipnc
  2472  00F8  3E01               	addlw	1
  2473  00F9  1903               	skipnz
  2474  00FA  28FC               	goto	u249_23
  2475  00FB  07D1               	addwf	___flmul@prod+3,f
  2476  00FC                     u249_23:
  2477  00FC  083C               	movf	___flmul@b+2,w
  2478  00FD  00C2               	movwf	??___flmul
  2479  00FE  0842               	movf	??___flmul,w
  2480  00FF  00F0               	movwf	__Umul8_16@multiplicand
  2481  0100  083E               	movf	___flmul@a,w
  2482  0101  120A  158A  2408  120A  118A  	fcall	__Umul8_16
  2483  0106  0871               	movf	?__Umul8_16+1,w
  2484  0107  1283               	bcf	3,5	;RP0=0, select bank0
  2485  0108  1303               	bcf	3,6	;RP1=0, select bank0
  2486  0109  00D3               	movwf	___flmul@temp+1
  2487  010A  0870               	movf	?__Umul8_16,w
  2488  010B  00D2               	movwf	___flmul@temp
  2489  010C                     i1l1868:
  2490  010C  0852               	movf	___flmul@temp,w
  2491  010D  00C2               	movwf	??___flmul
  2492  010E  01C3               	clrf	??___flmul+1
  2493  010F  01C4               	clrf	??___flmul+2
  2494  0110  01C5               	clrf	??___flmul+3
  2495  0111  0842               	movf	??___flmul,w
  2496  0112  07C8               	addwf	___flmul@grs,f
  2497  0113  0843               	movf	??___flmul+1,w
  2498  0114  1103               	clrz
  2499  0115  1803               	skipnc
  2500  0116  3E01               	addlw	1
  2501  0117  1903               	skipnz
  2502  0118  291A               	goto	u250_21
  2503  0119  07C9               	addwf	___flmul@grs+1,f
  2504  011A                     u250_21:
  2505  011A  0844               	movf	??___flmul+2,w
  2506  011B  1103               	clrz
  2507  011C  1803               	skipnc
  2508  011D  3E01               	addlw	1
  2509  011E  1903               	skipnz
  2510  011F  2921               	goto	u250_22
  2511  0120  07CA               	addwf	___flmul@grs+2,f
  2512  0121                     u250_22:
  2513  0121  0845               	movf	??___flmul+3,w
  2514  0122  1103               	clrz
  2515  0123  1803               	skipnc
  2516  0124  3E01               	addlw	1
  2517  0125  1903               	skipnz
  2518  0126  2928               	goto	u250_23
  2519  0127  07CB               	addwf	___flmul@grs+3,f
  2520  0128                     u250_23:
  2521  0128                     i1l1870:
  2522  0128  0853               	movf	___flmul@temp+1,w
  2523  0129  00C2               	movwf	??___flmul
  2524  012A  01C3               	clrf	??___flmul+1
  2525  012B  01C4               	clrf	??___flmul+2
  2526  012C  01C5               	clrf	??___flmul+3
  2527  012D  0842               	movf	??___flmul,w
  2528  012E  07CE               	addwf	___flmul@prod,f
  2529  012F  0843               	movf	??___flmul+1,w
  2530  0130  1103               	clrz
  2531  0131  1803               	skipnc
  2532  0132  3E01               	addlw	1
  2533  0133  1903               	skipnz
  2534  0134  2936               	goto	u251_21
  2535  0135  07CF               	addwf	___flmul@prod+1,f
  2536  0136                     u251_21:
  2537  0136  0844               	movf	??___flmul+2,w
  2538  0137  1103               	clrz
  2539  0138  1803               	skipnc
  2540  0139  3E01               	addlw	1
  2541  013A  1903               	skipnz
  2542  013B  293D               	goto	u251_22
  2543  013C  07D0               	addwf	___flmul@prod+2,f
  2544  013D                     u251_22:
  2545  013D  0845               	movf	??___flmul+3,w
  2546  013E  1103               	clrz
  2547  013F  1803               	skipnc
  2548  0140  3E01               	addlw	1
  2549  0141  1903               	skipnz
  2550  0142  2944               	goto	u251_23
  2551  0143  07D1               	addwf	___flmul@prod+3,f
  2552  0144                     u251_23:
  2553  0144                     i1l1872:
  2554  0144  3008               	movlw	8
  2555  0145  00C2               	movwf	??___flmul
  2556  0146                     u252_25:
  2557  0146  1003               	clrc
  2558  0147  0DC8               	rlf	___flmul@grs,f
  2559  0148  0DC9               	rlf	___flmul@grs+1,f
  2560  0149  0DCA               	rlf	___flmul@grs+2,f
  2561  014A  0DCB               	rlf	___flmul@grs+3,f
  2562  014B  0BC2               	decfsz	??___flmul,f
  2563  014C  2946               	goto	u252_25
  2564  014D                     i1l1874:
  2565  014D  083B               	movf	___flmul@b+1,w
  2566  014E  00C2               	movwf	??___flmul
  2567  014F  0842               	movf	??___flmul,w
  2568  0150  00F0               	movwf	__Umul8_16@multiplicand
  2569  0151  083E               	movf	___flmul@a,w
  2570  0152  120A  158A  2408  120A  118A  	fcall	__Umul8_16
  2571  0157  0871               	movf	?__Umul8_16+1,w
  2572  0158  1283               	bcf	3,5	;RP0=0, select bank0
  2573  0159  1303               	bcf	3,6	;RP1=0, select bank0
  2574  015A  00D3               	movwf	___flmul@temp+1
  2575  015B  0870               	movf	?__Umul8_16,w
  2576  015C  00D2               	movwf	___flmul@temp
  2577  015D                     i1l1876:
  2578  015D  0852               	movf	___flmul@temp,w
  2579  015E  00C2               	movwf	??___flmul
  2580  015F  0853               	movf	___flmul@temp+1,w
  2581  0160  00C3               	movwf	??___flmul+1
  2582  0161  01C4               	clrf	??___flmul+2
  2583  0162  01C5               	clrf	??___flmul+3
  2584  0163  0842               	movf	??___flmul,w
  2585  0164  07C8               	addwf	___flmul@grs,f
  2586  0165  0843               	movf	??___flmul+1,w
  2587  0166  1103               	clrz
  2588  0167  1803               	skipnc
  2589  0168  3E01               	addlw	1
  2590  0169  1903               	skipnz
  2591  016A  296C               	goto	u253_21
  2592  016B  07C9               	addwf	___flmul@grs+1,f
  2593  016C                     u253_21:
  2594  016C  0844               	movf	??___flmul+2,w
  2595  016D  1103               	clrz
  2596  016E  1803               	skipnc
  2597  016F  3E01               	addlw	1
  2598  0170  1903               	skipnz
  2599  0171  2973               	goto	u253_22
  2600  0172  07CA               	addwf	___flmul@grs+2,f
  2601  0173                     u253_22:
  2602  0173  0845               	movf	??___flmul+3,w
  2603  0174  1103               	clrz
  2604  0175  1803               	skipnc
  2605  0176  3E01               	addlw	1
  2606  0177  1903               	skipnz
  2607  0178  297A               	goto	u253_23
  2608  0179  07CB               	addwf	___flmul@grs+3,f
  2609  017A                     u253_23:
  2610  017A                     i1l1878:
  2611  017A  083A               	movf	___flmul@b,w
  2612  017B  00C2               	movwf	??___flmul
  2613  017C  0842               	movf	??___flmul,w
  2614  017D  00F0               	movwf	__Umul8_16@multiplicand
  2615  017E  083F               	movf	___flmul@a+1,w
  2616  017F  120A  158A  2408  120A  118A  	fcall	__Umul8_16
  2617  0184  0871               	movf	?__Umul8_16+1,w
  2618  0185  1283               	bcf	3,5	;RP0=0, select bank0
  2619  0186  1303               	bcf	3,6	;RP1=0, select bank0
  2620  0187  00D3               	movwf	___flmul@temp+1
  2621  0188  0870               	movf	?__Umul8_16,w
  2622  0189  00D2               	movwf	___flmul@temp
  2623  018A                     i1l1880:
  2624  018A  0852               	movf	___flmul@temp,w
  2625  018B  00C2               	movwf	??___flmul
  2626  018C  0853               	movf	___flmul@temp+1,w
  2627  018D  00C3               	movwf	??___flmul+1
  2628  018E  01C4               	clrf	??___flmul+2
  2629  018F  01C5               	clrf	??___flmul+3
  2630  0190  0842               	movf	??___flmul,w
  2631  0191  07C8               	addwf	___flmul@grs,f
  2632  0192  0843               	movf	??___flmul+1,w
  2633  0193  1103               	clrz
  2634  0194  1803               	skipnc
  2635  0195  3E01               	addlw	1
  2636  0196  1903               	skipnz
  2637  0197  2999               	goto	u254_21
  2638  0198  07C9               	addwf	___flmul@grs+1,f
  2639  0199                     u254_21:
  2640  0199  0844               	movf	??___flmul+2,w
  2641  019A  1103               	clrz
  2642  019B  1803               	skipnc
  2643  019C  3E01               	addlw	1
  2644  019D  1903               	skipnz
  2645  019E  29A0               	goto	u254_22
  2646  019F  07CA               	addwf	___flmul@grs+2,f
  2647  01A0                     u254_22:
  2648  01A0  0845               	movf	??___flmul+3,w
  2649  01A1  1103               	clrz
  2650  01A2  1803               	skipnc
  2651  01A3  3E01               	addlw	1
  2652  01A4  1903               	skipnz
  2653  01A5  29A7               	goto	u254_23
  2654  01A6  07CB               	addwf	___flmul@grs+3,f
  2655  01A7                     u254_23:
  2656  01A7                     i1l1882:
  2657  01A7  3008               	movlw	8
  2658  01A8  00C2               	movwf	??___flmul
  2659  01A9                     u255_25:
  2660  01A9  1003               	clrc
  2661  01AA  0DC8               	rlf	___flmul@grs,f
  2662  01AB  0DC9               	rlf	___flmul@grs+1,f
  2663  01AC  0DCA               	rlf	___flmul@grs+2,f
  2664  01AD  0DCB               	rlf	___flmul@grs+3,f
  2665  01AE  0BC2               	decfsz	??___flmul,f
  2666  01AF  29A9               	goto	u255_25
  2667  01B0  083A               	movf	___flmul@b,w
  2668  01B1  00C2               	movwf	??___flmul
  2669  01B2  0842               	movf	??___flmul,w
  2670  01B3  00F0               	movwf	__Umul8_16@multiplicand
  2671  01B4  083E               	movf	___flmul@a,w
  2672  01B5  120A  158A  2408  120A  118A  	fcall	__Umul8_16
  2673  01BA  0871               	movf	?__Umul8_16+1,w
  2674  01BB  1283               	bcf	3,5	;RP0=0, select bank0
  2675  01BC  1303               	bcf	3,6	;RP1=0, select bank0
  2676  01BD  00D3               	movwf	___flmul@temp+1
  2677  01BE  0870               	movf	?__Umul8_16,w
  2678  01BF  00D2               	movwf	___flmul@temp
  2679  01C0                     i1l1884:
  2680  01C0  0852               	movf	___flmul@temp,w
  2681  01C1  00C2               	movwf	??___flmul
  2682  01C2  0853               	movf	___flmul@temp+1,w
  2683  01C3  00C3               	movwf	??___flmul+1
  2684  01C4  01C4               	clrf	??___flmul+2
  2685  01C5  01C5               	clrf	??___flmul+3
  2686  01C6  0842               	movf	??___flmul,w
  2687  01C7  07C8               	addwf	___flmul@grs,f
  2688  01C8  0843               	movf	??___flmul+1,w
  2689  01C9  1103               	clrz
  2690  01CA  1803               	skipnc
  2691  01CB  3E01               	addlw	1
  2692  01CC  1903               	skipnz
  2693  01CD  29CF               	goto	u256_21
  2694  01CE  07C9               	addwf	___flmul@grs+1,f
  2695  01CF                     u256_21:
  2696  01CF  0844               	movf	??___flmul+2,w
  2697  01D0  1103               	clrz
  2698  01D1  1803               	skipnc
  2699  01D2  3E01               	addlw	1
  2700  01D3  1903               	skipnz
  2701  01D4  29D6               	goto	u256_22
  2702  01D5  07CA               	addwf	___flmul@grs+2,f
  2703  01D6                     u256_22:
  2704  01D6  0845               	movf	??___flmul+3,w
  2705  01D7  1103               	clrz
  2706  01D8  1803               	skipnc
  2707  01D9  3E01               	addlw	1
  2708  01DA  1903               	skipnz
  2709  01DB  29DD               	goto	u256_23
  2710  01DC  07CB               	addwf	___flmul@grs+3,f
  2711  01DD                     u256_23:
  2712  01DD                     i1l1886:
  2713  01DD  083B               	movf	___flmul@b+1,w
  2714  01DE  00C2               	movwf	??___flmul
  2715  01DF  0842               	movf	??___flmul,w
  2716  01E0  00F0               	movwf	__Umul8_16@multiplicand
  2717  01E1  0840               	movf	___flmul@a+2,w
  2718  01E2  120A  158A  2408  120A  118A  	fcall	__Umul8_16
  2719  01E7  0871               	movf	?__Umul8_16+1,w
  2720  01E8  1283               	bcf	3,5	;RP0=0, select bank0
  2721  01E9  1303               	bcf	3,6	;RP1=0, select bank0
  2722  01EA  00D3               	movwf	___flmul@temp+1
  2723  01EB  0870               	movf	?__Umul8_16,w
  2724  01EC  00D2               	movwf	___flmul@temp
  2725  01ED  0852               	movf	___flmul@temp,w
  2726  01EE  00C2               	movwf	??___flmul
  2727  01EF  0853               	movf	___flmul@temp+1,w
  2728  01F0  00C3               	movwf	??___flmul+1
  2729  01F1  01C4               	clrf	??___flmul+2
  2730  01F2  01C5               	clrf	??___flmul+3
  2731  01F3  0842               	movf	??___flmul,w
  2732  01F4  07CE               	addwf	___flmul@prod,f
  2733  01F5  0843               	movf	??___flmul+1,w
  2734  01F6  1103               	clrz
  2735  01F7  1803               	skipnc
  2736  01F8  3E01               	addlw	1
  2737  01F9  1903               	skipnz
  2738  01FA  29FC               	goto	u257_21
  2739  01FB  07CF               	addwf	___flmul@prod+1,f
  2740  01FC                     u257_21:
  2741  01FC  0844               	movf	??___flmul+2,w
  2742  01FD  1103               	clrz
  2743  01FE  1803               	skipnc
  2744  01FF  3E01               	addlw	1
  2745  0200  1903               	skipnz
  2746  0201  2A03               	goto	u257_22
  2747  0202  07D0               	addwf	___flmul@prod+2,f
  2748  0203                     u257_22:
  2749  0203  0845               	movf	??___flmul+3,w
  2750  0204  1103               	clrz
  2751  0205  1803               	skipnc
  2752  0206  3E01               	addlw	1
  2753  0207  1903               	skipnz
  2754  0208  2A0A               	goto	u257_23
  2755  0209  07D1               	addwf	___flmul@prod+3,f
  2756  020A                     u257_23:
  2757  020A                     i1l1888:
  2758  020A  083C               	movf	___flmul@b+2,w
  2759  020B  00C2               	movwf	??___flmul
  2760  020C  0842               	movf	??___flmul,w
  2761  020D  00F0               	movwf	__Umul8_16@multiplicand
  2762  020E  083F               	movf	___flmul@a+1,w
  2763  020F  120A  158A  2408  120A  118A  	fcall	__Umul8_16
  2764  0214  0871               	movf	?__Umul8_16+1,w
  2765  0215  1283               	bcf	3,5	;RP0=0, select bank0
  2766  0216  1303               	bcf	3,6	;RP1=0, select bank0
  2767  0217  00D3               	movwf	___flmul@temp+1
  2768  0218  0870               	movf	?__Umul8_16,w
  2769  0219  00D2               	movwf	___flmul@temp
  2770  021A                     i1l1890:
  2771  021A  0852               	movf	___flmul@temp,w
  2772  021B  00C2               	movwf	??___flmul
  2773  021C  0853               	movf	___flmul@temp+1,w
  2774  021D  00C3               	movwf	??___flmul+1
  2775  021E  01C4               	clrf	??___flmul+2
  2776  021F  01C5               	clrf	??___flmul+3
  2777  0220  0842               	movf	??___flmul,w
  2778  0221  07CE               	addwf	___flmul@prod,f
  2779  0222  0843               	movf	??___flmul+1,w
  2780  0223  1103               	clrz
  2781  0224  1803               	skipnc
  2782  0225  3E01               	addlw	1
  2783  0226  1903               	skipnz
  2784  0227  2A29               	goto	u258_21
  2785  0228  07CF               	addwf	___flmul@prod+1,f
  2786  0229                     u258_21:
  2787  0229  0844               	movf	??___flmul+2,w
  2788  022A  1103               	clrz
  2789  022B  1803               	skipnc
  2790  022C  3E01               	addlw	1
  2791  022D  1903               	skipnz
  2792  022E  2A30               	goto	u258_22
  2793  022F  07D0               	addwf	___flmul@prod+2,f
  2794  0230                     u258_22:
  2795  0230  0845               	movf	??___flmul+3,w
  2796  0231  1103               	clrz
  2797  0232  1803               	skipnc
  2798  0233  3E01               	addlw	1
  2799  0234  1903               	skipnz
  2800  0235  2A37               	goto	u258_23
  2801  0236  07D1               	addwf	___flmul@prod+3,f
  2802  0237                     u258_23:
  2803  0237  083C               	movf	___flmul@b+2,w
  2804  0238  00C2               	movwf	??___flmul
  2805  0239  0842               	movf	??___flmul,w
  2806  023A  00F0               	movwf	__Umul8_16@multiplicand
  2807  023B  0840               	movf	___flmul@a+2,w
  2808  023C  120A  158A  2408  120A  118A  	fcall	__Umul8_16
  2809  0241  0871               	movf	?__Umul8_16+1,w
  2810  0242  1283               	bcf	3,5	;RP0=0, select bank0
  2811  0243  1303               	bcf	3,6	;RP1=0, select bank0
  2812  0244  00D3               	movwf	___flmul@temp+1
  2813  0245  0870               	movf	?__Umul8_16,w
  2814  0246  00D2               	movwf	___flmul@temp
  2815  0247                     i1l1892:
  2816  0247  0852               	movf	___flmul@temp,w
  2817  0248  00C2               	movwf	??___flmul
  2818  0249  0853               	movf	___flmul@temp+1,w
  2819  024A  00C3               	movwf	??___flmul+1
  2820  024B  01C4               	clrf	??___flmul+2
  2821  024C  01C5               	clrf	??___flmul+3
  2822  024D  3008               	movlw	8
  2823  024E                     u259_25:
  2824  024E  1003               	clrc
  2825  024F  0DC2               	rlf	??___flmul,f
  2826  0250  0DC3               	rlf	??___flmul+1,f
  2827  0251  0DC4               	rlf	??___flmul+2,f
  2828  0252  0DC5               	rlf	??___flmul+3,f
  2829  0253                     u259_20:
  2830  0253  3EFF               	addlw	-1
  2831  0254  1D03               	skipz
  2832  0255  2A4E               	goto	u259_25
  2833  0256  0842               	movf	??___flmul,w
  2834  0257  07CE               	addwf	___flmul@prod,f
  2835  0258  0843               	movf	??___flmul+1,w
  2836  0259  1103               	clrz
  2837  025A  1803               	skipnc
  2838  025B  3E01               	addlw	1
  2839  025C  1903               	skipnz
  2840  025D  2A5F               	goto	u260_21
  2841  025E  07CF               	addwf	___flmul@prod+1,f
  2842  025F                     u260_21:
  2843  025F  0844               	movf	??___flmul+2,w
  2844  0260  1103               	clrz
  2845  0261  1803               	skipnc
  2846  0262  3E01               	addlw	1
  2847  0263  1903               	skipnz
  2848  0264  2A66               	goto	u260_22
  2849  0265  07D0               	addwf	___flmul@prod+2,f
  2850  0266                     u260_22:
  2851  0266  0845               	movf	??___flmul+3,w
  2852  0267  1103               	clrz
  2853  0268  1803               	skipnc
  2854  0269  3E01               	addlw	1
  2855  026A  1903               	skipnz
  2856  026B  2A6D               	goto	u260_23
  2857  026C  07D1               	addwf	___flmul@prod+3,f
  2858  026D                     u260_23:
  2859  026D                     i1l1894:
  2860  026D  0848               	movf	___flmul@grs,w
  2861  026E  00C2               	movwf	??___flmul
  2862  026F  0849               	movf	___flmul@grs+1,w
  2863  0270  00C3               	movwf	??___flmul+1
  2864  0271  084A               	movf	___flmul@grs+2,w
  2865  0272  00C4               	movwf	??___flmul+2
  2866  0273  084B               	movf	___flmul@grs+3,w
  2867  0274  00C5               	movwf	??___flmul+3
  2868  0275  3018               	movlw	24
  2869  0276                     u261_25:
  2870  0276  1003               	clrc
  2871  0277  0CC5               	rrf	??___flmul+3,f
  2872  0278  0CC4               	rrf	??___flmul+2,f
  2873  0279  0CC3               	rrf	??___flmul+1,f
  2874  027A  0CC2               	rrf	??___flmul,f
  2875  027B                     u261_20:
  2876  027B  3EFF               	addlw	-1
  2877  027C  1D03               	skipz
  2878  027D  2A76               	goto	u261_25
  2879  027E  0842               	movf	??___flmul,w
  2880  027F  07CE               	addwf	___flmul@prod,f
  2881  0280  0843               	movf	??___flmul+1,w
  2882  0281  1103               	clrz
  2883  0282  1803               	skipnc
  2884  0283  3E01               	addlw	1
  2885  0284  1903               	skipnz
  2886  0285  2A87               	goto	u262_21
  2887  0286  07CF               	addwf	___flmul@prod+1,f
  2888  0287                     u262_21:
  2889  0287  0844               	movf	??___flmul+2,w
  2890  0288  1103               	clrz
  2891  0289  1803               	skipnc
  2892  028A  3E01               	addlw	1
  2893  028B  1903               	skipnz
  2894  028C  2A8E               	goto	u262_22
  2895  028D  07D0               	addwf	___flmul@prod+2,f
  2896  028E                     u262_22:
  2897  028E  0845               	movf	??___flmul+3,w
  2898  028F  1103               	clrz
  2899  0290  1803               	skipnc
  2900  0291  3E01               	addlw	1
  2901  0292  1903               	skipnz
  2902  0293  2A95               	goto	u262_23
  2903  0294  07D1               	addwf	___flmul@prod+3,f
  2904  0295                     u262_23:
  2905  0295                     i1l1896:
  2906  0295  3008               	movlw	8
  2907  0296  00C2               	movwf	??___flmul
  2908  0297                     u263_25:
  2909  0297  1003               	clrc
  2910  0298  0DC8               	rlf	___flmul@grs,f
  2911  0299  0DC9               	rlf	___flmul@grs+1,f
  2912  029A  0DCA               	rlf	___flmul@grs+2,f
  2913  029B  0DCB               	rlf	___flmul@grs+3,f
  2914  029C  0BC2               	decfsz	??___flmul,f
  2915  029D  2A97               	goto	u263_25
  2916  029E                     i1l1898:
  2917  029E  084D               	movf	___flmul@bexp,w
  2918  029F  074C               	addwf	___flmul@aexp,w
  2919  02A0  00C2               	movwf	??___flmul
  2920  02A1  01C3               	clrf	??___flmul+1
  2921  02A2  0DC3               	rlf	??___flmul+1,f
  2922  02A3  0842               	movf	??___flmul,w
  2923  02A4  3E82               	addlw	130
  2924  02A5  00D2               	movwf	___flmul@temp
  2925  02A6  0843               	movf	??___flmul+1,w
  2926  02A7  1803               	skipnc
  2927  02A8  3E01               	addlw	1
  2928  02A9  3EFF               	addlw	255
  2929  02AA  00D3               	movwf	___flmul@temp+1
  2930  02AB  2AC9               	goto	i1l1910
  2931  02AC                     i1l1900:
  2932  02AC  3001               	movlw	1
  2933  02AD  00C2               	movwf	??___flmul
  2934  02AE                     u264_25:
  2935  02AE  1003               	clrc
  2936  02AF  0DCE               	rlf	___flmul@prod,f
  2937  02B0  0DCF               	rlf	___flmul@prod+1,f
  2938  02B1  0DD0               	rlf	___flmul@prod+2,f
  2939  02B2  0DD1               	rlf	___flmul@prod+3,f
  2940  02B3  0BC2               	decfsz	??___flmul,f
  2941  02B4  2AAE               	goto	u264_25
  2942  02B5                     i1l1902:
  2943  02B5  1FCB               	btfss	___flmul@grs+3,7
  2944  02B6  2AB8               	goto	u265_21
  2945  02B7  2AB9               	goto	u265_20
  2946  02B8                     u265_21:
  2947  02B8  2ABA               	goto	i1l1906
  2948  02B9                     u265_20:
  2949  02B9                     i1l1904:
  2950  02B9  144E               	bsf	___flmul@prod,0
  2951  02BA                     i1l1906:
  2952  02BA  3001               	movlw	1
  2953  02BB  00C2               	movwf	??___flmul
  2954  02BC                     u266_25:
  2955  02BC  1003               	clrc
  2956  02BD  0DC8               	rlf	___flmul@grs,f
  2957  02BE  0DC9               	rlf	___flmul@grs+1,f
  2958  02BF  0DCA               	rlf	___flmul@grs+2,f
  2959  02C0  0DCB               	rlf	___flmul@grs+3,f
  2960  02C1  0BC2               	decfsz	??___flmul,f
  2961  02C2  2ABC               	goto	u266_25
  2962  02C3                     i1l1908:
  2963  02C3  30FF               	movlw	255
  2964  02C4  07D2               	addwf	___flmul@temp,f
  2965  02C5  1803               	skipnc
  2966  02C6  0AD3               	incf	___flmul@temp+1,f
  2967  02C7  30FF               	movlw	255
  2968  02C8  07D3               	addwf	___flmul@temp+1,f
  2969  02C9                     i1l1910:
  2970  02C9  1FD0               	btfss	___flmul@prod+2,7
  2971  02CA  2ACC               	goto	u267_21
  2972  02CB  2ACD               	goto	u267_20
  2973  02CC                     u267_21:
  2974  02CC  2AAC               	goto	i1l1900
  2975  02CD                     u267_20:
  2976  02CD                     i1l1912:
  2977  02CD  01CC               	clrf	___flmul@aexp
  2978  02CE                     i1l1914:
  2979  02CE  1FCB               	btfss	___flmul@grs+3,7
  2980  02CF  2AD1               	goto	u268_21
  2981  02D0  2AD2               	goto	u268_20
  2982  02D1                     u268_21:
  2983  02D1  2AEE               	goto	i1l1922
  2984  02D2                     u268_20:
  2985  02D2                     i1l1916:
  2986  02D2  30FF               	movlw	255
  2987  02D3  0548               	andwf	___flmul@grs,w
  2988  02D4  00C2               	movwf	??___flmul
  2989  02D5  30FF               	movlw	255
  2990  02D6  0549               	andwf	___flmul@grs+1,w
  2991  02D7  00C3               	movwf	??___flmul+1
  2992  02D8  30FF               	movlw	255
  2993  02D9  054A               	andwf	___flmul@grs+2,w
  2994  02DA  00C4               	movwf	??___flmul+2
  2995  02DB  307F               	movlw	127
  2996  02DC  054B               	andwf	___flmul@grs+3,w
  2997  02DD  00C5               	movwf	??___flmul+3
  2998  02DE  0845               	movf	??___flmul+3,w
  2999  02DF  0444               	iorwf	??___flmul+2,w
  3000  02E0  0443               	iorwf	??___flmul+1,w
  3001  02E1  0442               	iorwf	??___flmul,w
  3002  02E2  1903               	skipnz
  3003  02E3  2AE5               	goto	u269_21
  3004  02E4  2AE6               	goto	u269_20
  3005  02E5                     u269_21:
  3006  02E5  2AE9               	goto	i1l595
  3007  02E6                     u269_20:
  3008  02E6                     i1l1918:
  3009  02E6  01CC               	clrf	___flmul@aexp
  3010  02E7  0ACC               	incf	___flmul@aexp,f
  3011  02E8  2AEE               	goto	i1l1922
  3012  02E9                     i1l595:
  3013  02E9  1C4E               	btfss	___flmul@prod,0
  3014  02EA  2AEC               	goto	u270_21
  3015  02EB  2AED               	goto	u270_20
  3016  02EC                     u270_21:
  3017  02EC  2AEE               	goto	i1l1922
  3018  02ED                     u270_20:
  3019  02ED  2AE6               	goto	i1l1918
  3020  02EE                     i1l1922:
  3021  02EE  084C               	movf	___flmul@aexp,w
  3022  02EF  1903               	btfsc	3,2
  3023  02F0  2AF2               	goto	u271_21
  3024  02F1  2AF3               	goto	u271_20
  3025  02F2                     u271_21:
  3026  02F2  2B24               	goto	i1l1932
  3027  02F3                     u271_20:
  3028  02F3                     i1l1924:
  3029  02F3  3001               	movlw	1
  3030  02F4  07CE               	addwf	___flmul@prod,f
  3031  02F5  3000               	movlw	0
  3032  02F6  1803               	skipnc
  3033  02F7  3001               	movlw	1
  3034  02F8  07CF               	addwf	___flmul@prod+1,f
  3035  02F9  3000               	movlw	0
  3036  02FA  1803               	skipnc
  3037  02FB  3001               	movlw	1
  3038  02FC  07D0               	addwf	___flmul@prod+2,f
  3039  02FD  3000               	movlw	0
  3040  02FE  1803               	skipnc
  3041  02FF  3001               	movlw	1
  3042  0300  07D1               	addwf	___flmul@prod+3,f
  3043  0301                     i1l1926:
  3044  0301  1C51               	btfss	___flmul@prod+3,0
  3045  0302  2B04               	goto	u272_21
  3046  0303  2B05               	goto	u272_20
  3047  0304                     u272_21:
  3048  0304  2B24               	goto	i1l1932
  3049  0305                     u272_20:
  3050  0305                     i1l1928:
  3051  0305  084E               	movf	___flmul@prod,w
  3052  0306  00C2               	movwf	??___flmul
  3053  0307  084F               	movf	___flmul@prod+1,w
  3054  0308  00C3               	movwf	??___flmul+1
  3055  0309  0850               	movf	___flmul@prod+2,w
  3056  030A  00C4               	movwf	??___flmul+2
  3057  030B  0851               	movf	___flmul@prod+3,w
  3058  030C  00C5               	movwf	??___flmul+3
  3059  030D  3001               	movlw	1
  3060  030E  00C6               	movwf	??___flmul+4
  3061  030F                     u273_25:
  3062  030F  0D45               	rlf	??___flmul+3,w
  3063  0310  0CC5               	rrf	??___flmul+3,f
  3064  0311  0CC4               	rrf	??___flmul+2,f
  3065  0312  0CC3               	rrf	??___flmul+1,f
  3066  0313  0CC2               	rrf	??___flmul,f
  3067  0314                     u273_20:
  3068  0314  0BC6               	decfsz	??___flmul+4,f
  3069  0315  2B0F               	goto	u273_25
  3070  0316  0845               	movf	??___flmul+3,w
  3071  0317  00D1               	movwf	___flmul@prod+3
  3072  0318  0844               	movf	??___flmul+2,w
  3073  0319  00D0               	movwf	___flmul@prod+2
  3074  031A  0843               	movf	??___flmul+1,w
  3075  031B  00CF               	movwf	___flmul@prod+1
  3076  031C  0842               	movf	??___flmul,w
  3077  031D  00CE               	movwf	___flmul@prod
  3078  031E                     i1l1930:
  3079  031E  3001               	movlw	1
  3080  031F  07D2               	addwf	___flmul@temp,f
  3081  0320  1803               	skipnc
  3082  0321  0AD3               	incf	___flmul@temp+1,f
  3083  0322  3000               	movlw	0
  3084  0323  07D3               	addwf	___flmul@temp+1,f
  3085  0324                     i1l1932:
  3086  0324  0853               	movf	___flmul@temp+1,w
  3087  0325  3A80               	xorlw	128
  3088  0326  00FF               	movwf	btemp+1
  3089  0327  3080               	movlw	128
  3090  0328  027F               	subwf	btemp+1,w
  3091  0329  1D03               	skipz
  3092  032A  2B2D               	goto	u274_25
  3093  032B  30FF               	movlw	255
  3094  032C  0252               	subwf	___flmul@temp,w
  3095  032D                     u274_25:
  3096  032D  1C03               	skipc
  3097  032E  2B30               	goto	u274_21
  3098  032F  2B31               	goto	u274_20
  3099  0330                     u274_21:
  3100  0330  2B3C               	goto	i1l1936
  3101  0331                     u274_20:
  3102  0331                     i1l1934:
  3103  0331  307F               	movlw	127
  3104  0332  1283               	bcf	3,5	;RP0=0, select bank0
  3105  0333  1303               	bcf	3,6	;RP1=0, select bank0
  3106  0334  00D1               	movwf	___flmul@prod+3
  3107  0335  3080               	movlw	128
  3108  0336  00D0               	movwf	___flmul@prod+2
  3109  0337  3000               	movlw	0
  3110  0338  00CF               	movwf	___flmul@prod+1
  3111  0339  3000               	movlw	0
  3112  033A  00CE               	movwf	___flmul@prod
  3113  033B  2B71               	goto	i1l601
  3114  033C                     i1l1936:
  3115  033C  1283               	bcf	3,5	;RP0=0, select bank0
  3116  033D  1303               	bcf	3,6	;RP1=0, select bank0
  3117  033E  0853               	movf	___flmul@temp+1,w
  3118  033F  3A80               	xorlw	128
  3119  0340  00FF               	movwf	btemp+1
  3120  0341  3080               	movlw	128
  3121  0342  027F               	subwf	btemp+1,w
  3122  0343  1D03               	skipz
  3123  0344  2B47               	goto	u275_25
  3124  0345  3001               	movlw	1
  3125  0346  0252               	subwf	___flmul@temp,w
  3126  0347                     u275_25:
  3127  0347  1803               	skipnc
  3128  0348  2B4A               	goto	u275_21
  3129  0349  2B4B               	goto	u275_20
  3130  034A                     u275_21:
  3131  034A  2B57               	goto	i1l1942
  3132  034B                     u275_20:
  3133  034B                     i1l1938:
  3134  034B  3000               	movlw	0
  3135  034C  1283               	bcf	3,5	;RP0=0, select bank0
  3136  034D  1303               	bcf	3,6	;RP1=0, select bank0
  3137  034E  00D1               	movwf	___flmul@prod+3
  3138  034F  3000               	movlw	0
  3139  0350  00D0               	movwf	___flmul@prod+2
  3140  0351  3000               	movlw	0
  3141  0352  00CF               	movwf	___flmul@prod+1
  3142  0353  3000               	movlw	0
  3143  0354  00CE               	movwf	___flmul@prod
  3144  0355                     i1l1940:
  3145  0355  01C7               	clrf	___flmul@sign
  3146  0356  2B71               	goto	i1l601
  3147  0357                     i1l1942:
  3148  0357  1283               	bcf	3,5	;RP0=0, select bank0
  3149  0358  1303               	bcf	3,6	;RP1=0, select bank0
  3150  0359  0852               	movf	___flmul@temp,w
  3151  035A  00C2               	movwf	??___flmul
  3152  035B  0842               	movf	??___flmul,w
  3153  035C  00CD               	movwf	___flmul@bexp
  3154  035D  30FF               	movlw	255
  3155  035E  05CE               	andwf	___flmul@prod,f
  3156  035F  30FF               	movlw	255
  3157  0360  05CF               	andwf	___flmul@prod+1,f
  3158  0361  307F               	movlw	127
  3159  0362  05D0               	andwf	___flmul@prod+2,f
  3160  0363  3000               	movlw	0
  3161  0364  05D1               	andwf	___flmul@prod+3,f
  3162  0365                     i1l1944:
  3163  0365  1C4D               	btfss	___flmul@bexp,0
  3164  0366  2B68               	goto	u276_21
  3165  0367  2B69               	goto	u276_20
  3166  0368                     u276_21:
  3167  0368  2B6A               	goto	i1l1948
  3168  0369                     u276_20:
  3169  0369                     i1l1946:
  3170  0369  17D0               	bsf	___flmul@prod+2,7
  3171  036A                     i1l1948:
  3172  036A  084D               	movf	___flmul@bexp,w
  3173  036B  00C2               	movwf	??___flmul
  3174  036C  1003               	clrc
  3175  036D  0C42               	rrf	??___flmul,w
  3176  036E  00C3               	movwf	??___flmul+1
  3177  036F  0843               	movf	??___flmul+1,w
  3178  0370  00D1               	movwf	___flmul@prod+3
  3179  0371                     i1l601:
  3180  0371  0847               	movf	___flmul@sign,w
  3181  0372  00C2               	movwf	??___flmul
  3182  0373  0842               	movf	??___flmul,w
  3183  0374  04D1               	iorwf	___flmul@prod+3,f
  3184  0375                     i1l1950:
  3185  0375  0851               	movf	___flmul@prod+3,w
  3186  0376  00BD               	movwf	?___flmul+3
  3187  0377  0850               	movf	___flmul@prod+2,w
  3188  0378  00BC               	movwf	?___flmul+2
  3189  0379  084F               	movf	___flmul@prod+1,w
  3190  037A  00BB               	movwf	?___flmul+1
  3191  037B  084E               	movf	___flmul@prod,w
  3192  037C  00BA               	movwf	?___flmul
  3193  037D                     i1l589:
  3194  037D  0008               	return
  3195  037E                     __end_of___flmul:
  3196                           
  3197                           	psect	text9
  3198  0C08                     __ptext9:	
  3199 ;; *************** function __Umul8_16 *****************
  3200 ;; Defined at:
  3201 ;;		line 4 in file "C:\Program Files\Microchip\xc8\v2.35\pic\sources\c90\common\Umul8_16.c"
  3202 ;; Parameters:    Size  Location     Type
  3203 ;;  multiplier      1    wreg     unsigned char 
  3204 ;;  multiplicand    1    0[COMMON] unsigned char 
  3205 ;; Auto vars:     Size  Location     Type
  3206 ;;  multiplier      1    8[COMMON] unsigned char 
  3207 ;;  word_mpld       2    6[COMMON] unsigned int 
  3208 ;;  product         2    4[COMMON] unsigned int 
  3209 ;; Return value:  Size  Location     Type
  3210 ;;                  2    0[COMMON] unsigned int 
  3211 ;; Registers used:
  3212 ;;		wreg, status,2, status,0
  3213 ;; Tracked objects:
  3214 ;;		On entry : 0/0
  3215 ;;		On exit  : 0/0
  3216 ;;		Unchanged: 0/0
  3217 ;; Data sizes:     COMMON   BANK0   BANK1   BANK3   BANK2
  3218 ;;      Params:         2       0       0       0       0
  3219 ;;      Locals:         5       0       0       0       0
  3220 ;;      Temps:          2       0       0       0       0
  3221 ;;      Totals:         9       0       0       0       0
  3222 ;;Total ram usage:        9 bytes
  3223 ;; Hardware stack levels used: 1
  3224 ;; This function calls:
  3225 ;;		Nothing
  3226 ;; This function is called by:
  3227 ;;		___flmul
  3228 ;; This function uses a non-reentrant model
  3229 ;;
  3230                           
  3231  0C08                     __Umul8_16:	
  3232                           ;psect for function __Umul8_16
  3233                           
  3234                           
  3235                           ;incstack = 0
  3236                           ; Regs used in __Umul8_16: [wreg+status,2+status,0]
  3237                           ;__Umul8_16@multiplier stored from wreg
  3238  0C08  00F8               	movwf	__Umul8_16@multiplier
  3239  0C09                     i1l1428:
  3240  0C09  01F4               	clrf	__Umul8_16@product
  3241  0C0A  01F5               	clrf	__Umul8_16@product+1
  3242  0C0B                     i1l1430:
  3243  0C0B  0870               	movf	__Umul8_16@multiplicand,w
  3244  0C0C  00F2               	movwf	??__Umul8_16
  3245  0C0D  01F3               	clrf	??__Umul8_16+1
  3246  0C0E  0872               	movf	??__Umul8_16,w
  3247  0C0F  00F6               	movwf	__Umul8_16@word_mpld
  3248  0C10  0873               	movf	??__Umul8_16+1,w
  3249  0C11  00F7               	movwf	__Umul8_16@word_mpld+1
  3250  0C12                     i1l1432:
  3251  0C12  1C78               	btfss	__Umul8_16@multiplier,0
  3252  0C13  2C15               	goto	u152_21
  3253  0C14  2C16               	goto	u152_20
  3254  0C15                     u152_21:
  3255  0C15  2C1C               	goto	i1l608
  3256  0C16                     u152_20:
  3257  0C16                     i1l1434:
  3258  0C16  0876               	movf	__Umul8_16@word_mpld,w
  3259  0C17  07F4               	addwf	__Umul8_16@product,f
  3260  0C18  1803               	skipnc
  3261  0C19  0AF5               	incf	__Umul8_16@product+1,f
  3262  0C1A  0877               	movf	__Umul8_16@word_mpld+1,w
  3263  0C1B  07F5               	addwf	__Umul8_16@product+1,f
  3264  0C1C                     i1l608:
  3265  0C1C  3001               	movlw	1
  3266  0C1D                     u153_25:
  3267  0C1D  1003               	clrc
  3268  0C1E  0DF6               	rlf	__Umul8_16@word_mpld,f
  3269  0C1F  0DF7               	rlf	__Umul8_16@word_mpld+1,f
  3270  0C20  3EFF               	addlw	-1
  3271  0C21  1D03               	skipz
  3272  0C22  2C1D               	goto	u153_25
  3273  0C23  1003               	clrc
  3274  0C24  0CF8               	rrf	__Umul8_16@multiplier,f
  3275  0C25                     i1l1436:
  3276  0C25  0878               	movf	__Umul8_16@multiplier,w
  3277  0C26  1D03               	btfss	3,2
  3278  0C27  2C29               	goto	u154_21
  3279  0C28  2C2A               	goto	u154_20
  3280  0C29                     u154_21:
  3281  0C29  2C12               	goto	i1l1432
  3282  0C2A                     u154_20:
  3283  0C2A                     i1l1438:
  3284  0C2A  0875               	movf	__Umul8_16@product+1,w
  3285  0C2B  00F1               	movwf	?__Umul8_16+1
  3286  0C2C  0874               	movf	__Umul8_16@product,w
  3287  0C2D  00F0               	movwf	?__Umul8_16
  3288  0C2E                     i1l610:
  3289  0C2E  0008               	return
  3290  0C2F                     __end_of__Umul8_16:
  3291                           
  3292                           	psect	text10
  3293  0606                     __ptext10:	
  3294 ;; *************** function ___fldiv *****************
  3295 ;; Defined at:
  3296 ;;		line 8 in file "C:\Program Files\Microchip\xc8\v2.35\pic\sources\c90\common\sprcdiv.c"
  3297 ;; Parameters:    Size  Location     Type
  3298 ;;  a               4    0[BANK0 ] unsigned int 
  3299 ;;  b               4    4[BANK0 ] unsigned int 
  3300 ;; Auto vars:     Size  Location     Type
  3301 ;;  grs             4   20[BANK0 ] unsigned long 
  3302 ;;  rem             4   13[BANK0 ] unsigned long 
  3303 ;;  new_exp         2   18[BANK0 ] int 
  3304 ;;  aexp            1   25[BANK0 ] unsigned char 
  3305 ;;  bexp            1   24[BANK0 ] unsigned char 
  3306 ;;  sign            1   17[BANK0 ] unsigned char 
  3307 ;; Return value:  Size  Location     Type
  3308 ;;                  4    0[BANK0 ] unsigned char 
  3309 ;; Registers used:
  3310 ;;		wreg, status,2, status,0, btemp+1
  3311 ;; Tracked objects:
  3312 ;;		On entry : 0/0
  3313 ;;		On exit  : 0/0
  3314 ;;		Unchanged: 0/0
  3315 ;; Data sizes:     COMMON   BANK0   BANK1   BANK3   BANK2
  3316 ;;      Params:         0       8       0       0       0
  3317 ;;      Locals:         0      13       0       0       0
  3318 ;;      Temps:          0       5       0       0       0
  3319 ;;      Totals:         0      26       0       0       0
  3320 ;;Total ram usage:       26 bytes
  3321 ;; Hardware stack levels used: 1
  3322 ;; This function calls:
  3323 ;;		Nothing
  3324 ;; This function is called by:
  3325 ;;		_interpole
  3326 ;; This function uses a non-reentrant model
  3327 ;;
  3328                           
  3329  0606                     ___fldiv:	
  3330                           ;psect for function ___fldiv
  3331                           
  3332  0606                     i1l1672:	
  3333                           ;incstack = 0
  3334                           ; Regs used in ___fldiv: [wreg+status,2+status,0+btemp+1]
  3335                           
  3336  0606  1283               	bcf	3,5	;RP0=0, select bank0
  3337  0607  1303               	bcf	3,6	;RP1=0, select bank0
  3338  0608  0827               	movf	___fldiv@b+3,w
  3339  0609  3980               	andlw	128
  3340  060A  00A8               	movwf	??___fldiv
  3341  060B  0828               	movf	??___fldiv,w
  3342  060C  00B1               	movwf	___fldiv@sign
  3343  060D                     i1l1674:
  3344  060D  0827               	movf	___fldiv@b+3,w
  3345  060E  00A8               	movwf	??___fldiv
  3346  060F  0728               	addwf	??___fldiv,w
  3347  0610  00A9               	movwf	??___fldiv+1
  3348  0611  0829               	movf	??___fldiv+1,w
  3349  0612  00B8               	movwf	___fldiv@bexp
  3350  0613                     i1l1676:
  3351  0613  1FA6               	btfss	___fldiv@b+2,7
  3352  0614  2E16               	goto	u211_21
  3353  0615  2E17               	goto	u211_20
  3354  0616                     u211_21:
  3355  0616  2E18               	goto	i1l1680
  3356  0617                     u211_20:
  3357  0617                     i1l1678:
  3358  0617  1438               	bsf	___fldiv@bexp,0
  3359  0618                     i1l1680:
  3360  0618  0838               	movf	___fldiv@bexp,w
  3361  0619  1903               	btfsc	3,2
  3362  061A  2E1C               	goto	u212_21
  3363  061B  2E1D               	goto	u212_20
  3364  061C                     u212_21:
  3365  061C  2E2D               	goto	i1l1690
  3366  061D                     u212_20:
  3367  061D                     i1l1682:
  3368  061D  0A38               	incf	___fldiv@bexp,w
  3369  061E  1D03               	btfss	3,2
  3370  061F  2E21               	goto	u213_21
  3371  0620  2E22               	goto	u213_20
  3372  0621                     u213_21:
  3373  0621  2E2A               	goto	i1l1686
  3374  0622                     u213_20:
  3375  0622                     i1l1684:
  3376  0622  3000               	movlw	0
  3377  0623  00A7               	movwf	___fldiv@b+3
  3378  0624  3000               	movlw	0
  3379  0625  00A6               	movwf	___fldiv@b+2
  3380  0626  3000               	movlw	0
  3381  0627  00A5               	movwf	___fldiv@b+1
  3382  0628  3000               	movlw	0
  3383  0629  00A4               	movwf	___fldiv@b
  3384  062A                     i1l1686:
  3385  062A  17A6               	bsf	___fldiv@b+2,7
  3386  062B                     i1l1688:
  3387  062B  01A7               	clrf	___fldiv@b+3
  3388  062C  2E35               	goto	i1l1692
  3389  062D                     i1l1690:
  3390  062D  3000               	movlw	0
  3391  062E  00A7               	movwf	___fldiv@b+3
  3392  062F  3000               	movlw	0
  3393  0630  00A6               	movwf	___fldiv@b+2
  3394  0631  3000               	movlw	0
  3395  0632  00A5               	movwf	___fldiv@b+1
  3396  0633  3000               	movlw	0
  3397  0634  00A4               	movwf	___fldiv@b
  3398  0635                     i1l1692:
  3399  0635  0823               	movf	___fldiv@a+3,w
  3400  0636  3980               	andlw	128
  3401  0637  00A8               	movwf	??___fldiv
  3402  0638  0828               	movf	??___fldiv,w
  3403  0639  06B1               	xorwf	___fldiv@sign,f
  3404  063A                     i1l1694:
  3405  063A  0823               	movf	___fldiv@a+3,w
  3406  063B  00A8               	movwf	??___fldiv
  3407  063C  0728               	addwf	??___fldiv,w
  3408  063D  00A9               	movwf	??___fldiv+1
  3409  063E  0829               	movf	??___fldiv+1,w
  3410  063F  00B9               	movwf	___fldiv@aexp
  3411  0640                     i1l1696:
  3412  0640  1FA2               	btfss	___fldiv@a+2,7
  3413  0641  2E43               	goto	u214_21
  3414  0642  2E44               	goto	u214_20
  3415  0643                     u214_21:
  3416  0643  2E45               	goto	i1l1700
  3417  0644                     u214_20:
  3418  0644                     i1l1698:
  3419  0644  1439               	bsf	___fldiv@aexp,0
  3420  0645                     i1l1700:
  3421  0645  0839               	movf	___fldiv@aexp,w
  3422  0646  1903               	btfsc	3,2
  3423  0647  2E49               	goto	u215_21
  3424  0648  2E4A               	goto	u215_20
  3425  0649                     u215_21:
  3426  0649  2E5A               	goto	i1l1710
  3427  064A                     u215_20:
  3428  064A                     i1l1702:
  3429  064A  0A39               	incf	___fldiv@aexp,w
  3430  064B  1D03               	btfss	3,2
  3431  064C  2E4E               	goto	u216_21
  3432  064D  2E4F               	goto	u216_20
  3433  064E                     u216_21:
  3434  064E  2E57               	goto	i1l1706
  3435  064F                     u216_20:
  3436  064F                     i1l1704:
  3437  064F  3000               	movlw	0
  3438  0650  00A3               	movwf	___fldiv@a+3
  3439  0651  3000               	movlw	0
  3440  0652  00A2               	movwf	___fldiv@a+2
  3441  0653  3000               	movlw	0
  3442  0654  00A1               	movwf	___fldiv@a+1
  3443  0655  3000               	movlw	0
  3444  0656  00A0               	movwf	___fldiv@a
  3445  0657                     i1l1706:
  3446  0657  17A2               	bsf	___fldiv@a+2,7
  3447  0658                     i1l1708:
  3448  0658  01A3               	clrf	___fldiv@a+3
  3449  0659  2E62               	goto	i1l549
  3450  065A                     i1l1710:
  3451  065A  3000               	movlw	0
  3452  065B  00A3               	movwf	___fldiv@a+3
  3453  065C  3000               	movlw	0
  3454  065D  00A2               	movwf	___fldiv@a+2
  3455  065E  3000               	movlw	0
  3456  065F  00A1               	movwf	___fldiv@a+1
  3457  0660  3000               	movlw	0
  3458  0661  00A0               	movwf	___fldiv@a
  3459  0662                     i1l549:
  3460  0662  0823               	movf	___fldiv@a+3,w
  3461  0663  0422               	iorwf	___fldiv@a+2,w
  3462  0664  0421               	iorwf	___fldiv@a+1,w
  3463  0665  0420               	iorwf	___fldiv@a,w
  3464  0666  1D03               	skipz
  3465  0667  2E69               	goto	u217_21
  3466  0668  2E6A               	goto	u217_20
  3467  0669                     u217_21:
  3468  0669  2E83               	goto	i1l1720
  3469  066A                     u217_20:
  3470  066A                     i1l1712:
  3471  066A  3000               	movlw	0
  3472  066B  00A7               	movwf	___fldiv@b+3
  3473  066C  3000               	movlw	0
  3474  066D  00A6               	movwf	___fldiv@b+2
  3475  066E  3000               	movlw	0
  3476  066F  00A5               	movwf	___fldiv@b+1
  3477  0670  3000               	movlw	0
  3478  0671  00A4               	movwf	___fldiv@b
  3479  0672  3080               	movlw	128
  3480  0673  04A6               	iorwf	___fldiv@b+2,f
  3481  0674  307F               	movlw	127
  3482  0675  04A7               	iorwf	___fldiv@b+3,f
  3483  0676                     i1l1714:
  3484  0676  0831               	movf	___fldiv@sign,w
  3485  0677  00A8               	movwf	??___fldiv
  3486  0678  0828               	movf	??___fldiv,w
  3487  0679  04A7               	iorwf	___fldiv@b+3,f
  3488  067A                     i1l1716:
  3489  067A  0827               	movf	___fldiv@b+3,w
  3490  067B  00A3               	movwf	?___fldiv+3
  3491  067C  0826               	movf	___fldiv@b+2,w
  3492  067D  00A2               	movwf	?___fldiv+2
  3493  067E  0825               	movf	___fldiv@b+1,w
  3494  067F  00A1               	movwf	?___fldiv+1
  3495  0680  0824               	movf	___fldiv@b,w
  3496  0681  00A0               	movwf	?___fldiv
  3497  0682  2FE2               	goto	i1l551
  3498  0683                     i1l1720:
  3499  0683  0838               	movf	___fldiv@bexp,w
  3500  0684  1D03               	btfss	3,2
  3501  0685  2E87               	goto	u218_21
  3502  0686  2E88               	goto	u218_20
  3503  0687                     u218_21:
  3504  0687  2E91               	goto	i1l1726
  3505  0688                     u218_20:
  3506  0688                     i1l1722:
  3507  0688  3000               	movlw	0
  3508  0689  00A3               	movwf	?___fldiv+3
  3509  068A  3000               	movlw	0
  3510  068B  00A2               	movwf	?___fldiv+2
  3511  068C  3000               	movlw	0
  3512  068D  00A1               	movwf	?___fldiv+1
  3513  068E  3000               	movlw	0
  3514  068F  00A0               	movwf	?___fldiv
  3515  0690  2FE2               	goto	i1l551
  3516  0691                     i1l1726:
  3517  0691  0838               	movf	___fldiv@bexp,w
  3518  0692  00A8               	movwf	??___fldiv
  3519  0693  01A9               	clrf	??___fldiv+1
  3520  0694  0829               	movf	??___fldiv+1,w
  3521  0695  00AB               	movwf	??___fldiv+3
  3522  0696  0839               	movf	___fldiv@aexp,w
  3523  0697  0228               	subwf	??___fldiv,w
  3524  0698  00AA               	movwf	??___fldiv+2
  3525  0699  1C03               	skipc
  3526  069A  03AB               	decf	??___fldiv+3,f
  3527  069B  082A               	movf	??___fldiv+2,w
  3528  069C  3E7F               	addlw	127
  3529  069D  00B2               	movwf	___fldiv@new_exp
  3530  069E  082B               	movf	??___fldiv+3,w
  3531  069F  1803               	skipnc
  3532  06A0  3E01               	addlw	1
  3533  06A1  3E00               	addlw	0
  3534  06A2  00B3               	movwf	___fldiv@new_exp+1
  3535  06A3                     i1l1728:
  3536  06A3  0827               	movf	___fldiv@b+3,w
  3537  06A4  00B0               	movwf	___fldiv@rem+3
  3538  06A5  0826               	movf	___fldiv@b+2,w
  3539  06A6  00AF               	movwf	___fldiv@rem+2
  3540  06A7  0825               	movf	___fldiv@b+1,w
  3541  06A8  00AE               	movwf	___fldiv@rem+1
  3542  06A9  0824               	movf	___fldiv@b,w
  3543  06AA  00AD               	movwf	___fldiv@rem
  3544  06AB                     i1l1730:
  3545  06AB  3000               	movlw	0
  3546  06AC  00A7               	movwf	___fldiv@b+3
  3547  06AD  3000               	movlw	0
  3548  06AE  00A6               	movwf	___fldiv@b+2
  3549  06AF  3000               	movlw	0
  3550  06B0  00A5               	movwf	___fldiv@b+1
  3551  06B1  3000               	movlw	0
  3552  06B2  00A4               	movwf	___fldiv@b
  3553  06B3                     i1l1732:
  3554  06B3  3000               	movlw	0
  3555  06B4  00B7               	movwf	___fldiv@grs+3
  3556  06B5  3000               	movlw	0
  3557  06B6  00B6               	movwf	___fldiv@grs+2
  3558  06B7  3000               	movlw	0
  3559  06B8  00B5               	movwf	___fldiv@grs+1
  3560  06B9  3000               	movlw	0
  3561  06BA  00B4               	movwf	___fldiv@grs
  3562  06BB                     i1l1734:
  3563  06BB  01B9               	clrf	___fldiv@aexp
  3564  06BC  2F07               	goto	i1l1754
  3565  06BD                     i1l1736:
  3566  06BD  0839               	movf	___fldiv@aexp,w
  3567  06BE  1903               	btfsc	3,2
  3568  06BF  2EC1               	goto	u219_21
  3569  06C0  2EC2               	goto	u219_20
  3570  06C1                     u219_21:
  3571  06C1  2EE2               	goto	i1l1746
  3572  06C2                     u219_20:
  3573  06C2                     i1l1738:
  3574  06C2  3001               	movlw	1
  3575  06C3  00A8               	movwf	??___fldiv
  3576  06C4                     u220_25:
  3577  06C4  1003               	clrc
  3578  06C5  0DAD               	rlf	___fldiv@rem,f
  3579  06C6  0DAE               	rlf	___fldiv@rem+1,f
  3580  06C7  0DAF               	rlf	___fldiv@rem+2,f
  3581  06C8  0DB0               	rlf	___fldiv@rem+3,f
  3582  06C9  0BA8               	decfsz	??___fldiv,f
  3583  06CA  2EC4               	goto	u220_25
  3584  06CB  3001               	movlw	1
  3585  06CC  00A8               	movwf	??___fldiv
  3586  06CD                     u221_25:
  3587  06CD  1003               	clrc
  3588  06CE  0DA4               	rlf	___fldiv@b,f
  3589  06CF  0DA5               	rlf	___fldiv@b+1,f
  3590  06D0  0DA6               	rlf	___fldiv@b+2,f
  3591  06D1  0DA7               	rlf	___fldiv@b+3,f
  3592  06D2  0BA8               	decfsz	??___fldiv,f
  3593  06D3  2ECD               	goto	u221_25
  3594  06D4                     i1l1740:
  3595  06D4  1FB7               	btfss	___fldiv@grs+3,7
  3596  06D5  2ED7               	goto	u222_21
  3597  06D6  2ED8               	goto	u222_20
  3598  06D7                     u222_21:
  3599  06D7  2ED9               	goto	i1l1744
  3600  06D8                     u222_20:
  3601  06D8                     i1l1742:
  3602  06D8  1424               	bsf	___fldiv@b,0
  3603  06D9                     i1l1744:
  3604  06D9  3001               	movlw	1
  3605  06DA  00A8               	movwf	??___fldiv
  3606  06DB                     u223_25:
  3607  06DB  1003               	clrc
  3608  06DC  0DB4               	rlf	___fldiv@grs,f
  3609  06DD  0DB5               	rlf	___fldiv@grs+1,f
  3610  06DE  0DB6               	rlf	___fldiv@grs+2,f
  3611  06DF  0DB7               	rlf	___fldiv@grs+3,f
  3612  06E0  0BA8               	decfsz	??___fldiv,f
  3613  06E1  2EDB               	goto	u223_25
  3614  06E2                     i1l1746:
  3615  06E2  0823               	movf	___fldiv@a+3,w
  3616  06E3  0230               	subwf	___fldiv@rem+3,w
  3617  06E4  1D03               	skipz
  3618  06E5  2EF0               	goto	u224_25
  3619  06E6  0822               	movf	___fldiv@a+2,w
  3620  06E7  022F               	subwf	___fldiv@rem+2,w
  3621  06E8  1D03               	skipz
  3622  06E9  2EF0               	goto	u224_25
  3623  06EA  0821               	movf	___fldiv@a+1,w
  3624  06EB  022E               	subwf	___fldiv@rem+1,w
  3625  06EC  1D03               	skipz
  3626  06ED  2EF0               	goto	u224_25
  3627  06EE  0820               	movf	___fldiv@a,w
  3628  06EF  022D               	subwf	___fldiv@rem,w
  3629  06F0                     u224_25:
  3630  06F0  1C03               	skipc
  3631  06F1  2EF3               	goto	u224_21
  3632  06F2  2EF4               	goto	u224_20
  3633  06F3                     u224_21:
  3634  06F3  2F03               	goto	i1l1752
  3635  06F4                     u224_20:
  3636  06F4                     i1l1748:
  3637  06F4  1737               	bsf	___fldiv@grs+3,6
  3638  06F5                     i1l1750:
  3639  06F5  0820               	movf	___fldiv@a,w
  3640  06F6  02AD               	subwf	___fldiv@rem,f
  3641  06F7  0821               	movf	___fldiv@a+1,w
  3642  06F8  1C03               	skipc
  3643  06F9  0F21               	incfsz	___fldiv@a+1,w
  3644  06FA  02AE               	subwf	___fldiv@rem+1,f
  3645  06FB  0822               	movf	___fldiv@a+2,w
  3646  06FC  1C03               	skipc
  3647  06FD  0F22               	incfsz	___fldiv@a+2,w
  3648  06FE  02AF               	subwf	___fldiv@rem+2,f
  3649  06FF  0823               	movf	___fldiv@a+3,w
  3650  0700  1C03               	skipc
  3651  0701  0F23               	incfsz	___fldiv@a+3,w
  3652  0702  02B0               	subwf	___fldiv@rem+3,f
  3653  0703                     i1l1752:
  3654  0703  3001               	movlw	1
  3655  0704  00A8               	movwf	??___fldiv
  3656  0705  0828               	movf	??___fldiv,w
  3657  0706  07B9               	addwf	___fldiv@aexp,f
  3658  0707                     i1l1754:
  3659  0707  301A               	movlw	26
  3660  0708  0239               	subwf	___fldiv@aexp,w
  3661  0709  1C03               	skipc
  3662  070A  2F0C               	goto	u225_21
  3663  070B  2F0D               	goto	u225_20
  3664  070C                     u225_21:
  3665  070C  2EBD               	goto	i1l1736
  3666  070D                     u225_20:
  3667  070D                     i1l1756:
  3668  070D  0830               	movf	___fldiv@rem+3,w
  3669  070E  042F               	iorwf	___fldiv@rem+2,w
  3670  070F  042E               	iorwf	___fldiv@rem+1,w
  3671  0710  042D               	iorwf	___fldiv@rem,w
  3672  0711  1903               	skipnz
  3673  0712  2F14               	goto	u226_21
  3674  0713  2F15               	goto	u226_20
  3675  0714                     u226_21:
  3676  0714  2F34               	goto	i1l1770
  3677  0715                     u226_20:
  3678  0715                     i1l1758:
  3679  0715  1434               	bsf	___fldiv@grs,0
  3680  0716  2F34               	goto	i1l1770
  3681  0717                     i1l1760:
  3682  0717  3001               	movlw	1
  3683  0718  00A8               	movwf	??___fldiv
  3684  0719                     u227_25:
  3685  0719  1003               	clrc
  3686  071A  0DA4               	rlf	___fldiv@b,f
  3687  071B  0DA5               	rlf	___fldiv@b+1,f
  3688  071C  0DA6               	rlf	___fldiv@b+2,f
  3689  071D  0DA7               	rlf	___fldiv@b+3,f
  3690  071E  0BA8               	decfsz	??___fldiv,f
  3691  071F  2F19               	goto	u227_25
  3692  0720                     i1l1762:
  3693  0720  1FB7               	btfss	___fldiv@grs+3,7
  3694  0721  2F23               	goto	u228_21
  3695  0722  2F24               	goto	u228_20
  3696  0723                     u228_21:
  3697  0723  2F25               	goto	i1l1766
  3698  0724                     u228_20:
  3699  0724                     i1l1764:
  3700  0724  1424               	bsf	___fldiv@b,0
  3701  0725                     i1l1766:
  3702  0725  3001               	movlw	1
  3703  0726  00A8               	movwf	??___fldiv
  3704  0727                     u229_25:
  3705  0727  1003               	clrc
  3706  0728  0DB4               	rlf	___fldiv@grs,f
  3707  0729  0DB5               	rlf	___fldiv@grs+1,f
  3708  072A  0DB6               	rlf	___fldiv@grs+2,f
  3709  072B  0DB7               	rlf	___fldiv@grs+3,f
  3710  072C  0BA8               	decfsz	??___fldiv,f
  3711  072D  2F27               	goto	u229_25
  3712  072E                     i1l1768:
  3713  072E  30FF               	movlw	255
  3714  072F  07B2               	addwf	___fldiv@new_exp,f
  3715  0730  1803               	skipnc
  3716  0731  0AB3               	incf	___fldiv@new_exp+1,f
  3717  0732  30FF               	movlw	255
  3718  0733  07B3               	addwf	___fldiv@new_exp+1,f
  3719  0734                     i1l1770:
  3720  0734  1FA6               	btfss	___fldiv@b+2,7
  3721  0735  2F37               	goto	u230_21
  3722  0736  2F38               	goto	u230_20
  3723  0737                     u230_21:
  3724  0737  2F17               	goto	i1l1760
  3725  0738                     u230_20:
  3726  0738                     i1l1772:
  3727  0738  01B9               	clrf	___fldiv@aexp
  3728  0739                     i1l1774:
  3729  0739  1FB7               	btfss	___fldiv@grs+3,7
  3730  073A  2F3C               	goto	u231_21
  3731  073B  2F3D               	goto	u231_20
  3732  073C                     u231_21:
  3733  073C  2F59               	goto	i1l1782
  3734  073D                     u231_20:
  3735  073D                     i1l1776:
  3736  073D  30FF               	movlw	255
  3737  073E  0534               	andwf	___fldiv@grs,w
  3738  073F  00A8               	movwf	??___fldiv
  3739  0740  30FF               	movlw	255
  3740  0741  0535               	andwf	___fldiv@grs+1,w
  3741  0742  00A9               	movwf	??___fldiv+1
  3742  0743  30FF               	movlw	255
  3743  0744  0536               	andwf	___fldiv@grs+2,w
  3744  0745  00AA               	movwf	??___fldiv+2
  3745  0746  307F               	movlw	127
  3746  0747  0537               	andwf	___fldiv@grs+3,w
  3747  0748  00AB               	movwf	??___fldiv+3
  3748  0749  082B               	movf	??___fldiv+3,w
  3749  074A  042A               	iorwf	??___fldiv+2,w
  3750  074B  0429               	iorwf	??___fldiv+1,w
  3751  074C  0428               	iorwf	??___fldiv,w
  3752  074D  1903               	skipnz
  3753  074E  2F50               	goto	u232_21
  3754  074F  2F51               	goto	u232_20
  3755  0750                     u232_21:
  3756  0750  2F54               	goto	i1l565
  3757  0751                     u232_20:
  3758  0751                     i1l1778:
  3759  0751  01B9               	clrf	___fldiv@aexp
  3760  0752  0AB9               	incf	___fldiv@aexp,f
  3761  0753  2F59               	goto	i1l1782
  3762  0754                     i1l565:
  3763  0754  1C24               	btfss	___fldiv@b,0
  3764  0755  2F57               	goto	u233_21
  3765  0756  2F58               	goto	u233_20
  3766  0757                     u233_21:
  3767  0757  2F59               	goto	i1l1782
  3768  0758                     u233_20:
  3769  0758  2F51               	goto	i1l1778
  3770  0759                     i1l1782:
  3771  0759  0839               	movf	___fldiv@aexp,w
  3772  075A  1903               	btfsc	3,2
  3773  075B  2F5D               	goto	u234_21
  3774  075C  2F5E               	goto	u234_20
  3775  075D                     u234_21:
  3776  075D  2F8F               	goto	i1l1792
  3777  075E                     u234_20:
  3778  075E                     i1l1784:
  3779  075E  3001               	movlw	1
  3780  075F  07A4               	addwf	___fldiv@b,f
  3781  0760  3000               	movlw	0
  3782  0761  1803               	skipnc
  3783  0762  3001               	movlw	1
  3784  0763  07A5               	addwf	___fldiv@b+1,f
  3785  0764  3000               	movlw	0
  3786  0765  1803               	skipnc
  3787  0766  3001               	movlw	1
  3788  0767  07A6               	addwf	___fldiv@b+2,f
  3789  0768  3000               	movlw	0
  3790  0769  1803               	skipnc
  3791  076A  3001               	movlw	1
  3792  076B  07A7               	addwf	___fldiv@b+3,f
  3793  076C                     i1l1786:
  3794  076C  1C27               	btfss	___fldiv@b+3,0
  3795  076D  2F6F               	goto	u235_21
  3796  076E  2F70               	goto	u235_20
  3797  076F                     u235_21:
  3798  076F  2F8F               	goto	i1l1792
  3799  0770                     u235_20:
  3800  0770                     i1l1788:
  3801  0770  0824               	movf	___fldiv@b,w
  3802  0771  00A8               	movwf	??___fldiv
  3803  0772  0825               	movf	___fldiv@b+1,w
  3804  0773  00A9               	movwf	??___fldiv+1
  3805  0774  0826               	movf	___fldiv@b+2,w
  3806  0775  00AA               	movwf	??___fldiv+2
  3807  0776  0827               	movf	___fldiv@b+3,w
  3808  0777  00AB               	movwf	??___fldiv+3
  3809  0778  3001               	movlw	1
  3810  0779  00AC               	movwf	??___fldiv+4
  3811  077A                     u236_25:
  3812  077A  0D2B               	rlf	??___fldiv+3,w
  3813  077B  0CAB               	rrf	??___fldiv+3,f
  3814  077C  0CAA               	rrf	??___fldiv+2,f
  3815  077D  0CA9               	rrf	??___fldiv+1,f
  3816  077E  0CA8               	rrf	??___fldiv,f
  3817  077F                     u236_20:
  3818  077F  0BAC               	decfsz	??___fldiv+4,f
  3819  0780  2F7A               	goto	u236_25
  3820  0781  082B               	movf	??___fldiv+3,w
  3821  0782  00A7               	movwf	___fldiv@b+3
  3822  0783  082A               	movf	??___fldiv+2,w
  3823  0784  00A6               	movwf	___fldiv@b+2
  3824  0785  0829               	movf	??___fldiv+1,w
  3825  0786  00A5               	movwf	___fldiv@b+1
  3826  0787  0828               	movf	??___fldiv,w
  3827  0788  00A4               	movwf	___fldiv@b
  3828  0789                     i1l1790:
  3829  0789  3001               	movlw	1
  3830  078A  07B2               	addwf	___fldiv@new_exp,f
  3831  078B  1803               	skipnc
  3832  078C  0AB3               	incf	___fldiv@new_exp+1,f
  3833  078D  3000               	movlw	0
  3834  078E  07B3               	addwf	___fldiv@new_exp+1,f
  3835  078F                     i1l1792:
  3836  078F  0833               	movf	___fldiv@new_exp+1,w
  3837  0790  3A80               	xorlw	128
  3838  0791  00FF               	movwf	btemp+1
  3839  0792  3080               	movlw	128
  3840  0793  027F               	subwf	btemp+1,w
  3841  0794  1D03               	skipz
  3842  0795  2F98               	goto	u237_25
  3843  0796  30FF               	movlw	255
  3844  0797  0232               	subwf	___fldiv@new_exp,w
  3845  0798                     u237_25:
  3846  0798  1C03               	skipc
  3847  0799  2F9B               	goto	u237_21
  3848  079A  2F9C               	goto	u237_20
  3849  079B                     u237_21:
  3850  079B  2FAA               	goto	i1l1796
  3851  079C                     u237_20:
  3852  079C                     i1l1794:
  3853  079C  30FF               	movlw	255
  3854  079D  1283               	bcf	3,5	;RP0=0, select bank0
  3855  079E  1303               	bcf	3,6	;RP1=0, select bank0
  3856  079F  00B2               	movwf	___fldiv@new_exp
  3857  07A0  3000               	movlw	0
  3858  07A1  00B3               	movwf	___fldiv@new_exp+1
  3859  07A2  3000               	movlw	0
  3860  07A3  00A7               	movwf	___fldiv@b+3
  3861  07A4  3000               	movlw	0
  3862  07A5  00A6               	movwf	___fldiv@b+2
  3863  07A6  3000               	movlw	0
  3864  07A7  00A5               	movwf	___fldiv@b+1
  3865  07A8  3000               	movlw	0
  3866  07A9  00A4               	movwf	___fldiv@b
  3867  07AA                     i1l1796:
  3868  07AA  1283               	bcf	3,5	;RP0=0, select bank0
  3869  07AB  1303               	bcf	3,6	;RP1=0, select bank0
  3870  07AC  0833               	movf	___fldiv@new_exp+1,w
  3871  07AD  3A80               	xorlw	128
  3872  07AE  00FF               	movwf	btemp+1
  3873  07AF  3080               	movlw	128
  3874  07B0  027F               	subwf	btemp+1,w
  3875  07B1  1D03               	skipz
  3876  07B2  2FB5               	goto	u238_25
  3877  07B3  3001               	movlw	1
  3878  07B4  0232               	subwf	___fldiv@new_exp,w
  3879  07B5                     u238_25:
  3880  07B5  1803               	skipnc
  3881  07B6  2FB8               	goto	u238_21
  3882  07B7  2FB9               	goto	u238_20
  3883  07B8                     u238_21:
  3884  07B8  2FC6               	goto	i1l571
  3885  07B9                     u238_20:
  3886  07B9                     i1l1798:
  3887  07B9  1283               	bcf	3,5	;RP0=0, select bank0
  3888  07BA  1303               	bcf	3,6	;RP1=0, select bank0
  3889  07BB  01B2               	clrf	___fldiv@new_exp
  3890  07BC  01B3               	clrf	___fldiv@new_exp+1
  3891  07BD                     i1l1800:
  3892  07BD  3000               	movlw	0
  3893  07BE  00A7               	movwf	___fldiv@b+3
  3894  07BF  3000               	movlw	0
  3895  07C0  00A6               	movwf	___fldiv@b+2
  3896  07C1  3000               	movlw	0
  3897  07C2  00A5               	movwf	___fldiv@b+1
  3898  07C3  3000               	movlw	0
  3899  07C4  00A4               	movwf	___fldiv@b
  3900  07C5                     i1l1802:
  3901  07C5  01B1               	clrf	___fldiv@sign
  3902  07C6                     i1l571:
  3903  07C6  1283               	bcf	3,5	;RP0=0, select bank0
  3904  07C7  1303               	bcf	3,6	;RP1=0, select bank0
  3905  07C8  0832               	movf	___fldiv@new_exp,w
  3906  07C9  00A8               	movwf	??___fldiv
  3907  07CA  0828               	movf	??___fldiv,w
  3908  07CB  00B8               	movwf	___fldiv@bexp
  3909  07CC                     i1l1804:
  3910  07CC  1C38               	btfss	___fldiv@bexp,0
  3911  07CD  2FCF               	goto	u239_21
  3912  07CE  2FD0               	goto	u239_20
  3913  07CF                     u239_21:
  3914  07CF  2FD2               	goto	i1l1808
  3915  07D0                     u239_20:
  3916  07D0                     i1l1806:
  3917  07D0  17A6               	bsf	___fldiv@b+2,7
  3918  07D1  2FD6               	goto	i1l573
  3919  07D2                     i1l1808:
  3920  07D2  307F               	movlw	127
  3921  07D3  00A8               	movwf	??___fldiv
  3922  07D4  0828               	movf	??___fldiv,w
  3923  07D5  05A6               	andwf	___fldiv@b+2,f
  3924  07D6                     i1l573:
  3925  07D6  0838               	movf	___fldiv@bexp,w
  3926  07D7  00A8               	movwf	??___fldiv
  3927  07D8  1003               	clrc
  3928  07D9  0C28               	rrf	??___fldiv,w
  3929  07DA  00A9               	movwf	??___fldiv+1
  3930  07DB  0829               	movf	??___fldiv+1,w
  3931  07DC  00A7               	movwf	___fldiv@b+3
  3932  07DD  0831               	movf	___fldiv@sign,w
  3933  07DE  00A8               	movwf	??___fldiv
  3934  07DF  0828               	movf	??___fldiv,w
  3935  07E0  04A7               	iorwf	___fldiv@b+3,f
  3936  07E1  2E7A               	goto	i1l1716
  3937  07E2                     i1l551:
  3938  07E2  0008               	return
  3939  07E3                     __end_of___fldiv:
  3940                           
  3941                           	psect	text11
  3942  037E                     __ptext11:	
  3943 ;; *************** function ___fladd *****************
  3944 ;; Defined at:
  3945 ;;		line 10 in file "C:\Program Files\Microchip\xc8\v2.35\pic\sources\c90\common\sprcadd.c"
  3946 ;; Parameters:    Size  Location     Type
  3947 ;;  b               4   52[BANK0 ] unsigned char 
  3948 ;;  a               4   56[BANK0 ] unsigned char 
  3949 ;; Auto vars:     Size  Location     Type
  3950 ;;  grs             1   71[BANK0 ] unsigned char 
  3951 ;;  bexp            1   70[BANK0 ] unsigned char 
  3952 ;;  aexp            1   69[BANK0 ] unsigned char 
  3953 ;;  signs           1   68[BANK0 ] unsigned char 
  3954 ;; Return value:  Size  Location     Type
  3955 ;;                  4   52[BANK0 ] unsigned char 
  3956 ;; Registers used:
  3957 ;;		wreg, status,2, status,0, btemp+1
  3958 ;; Tracked objects:
  3959 ;;		On entry : 0/0
  3960 ;;		On exit  : 0/0
  3961 ;;		Unchanged: 0/0
  3962 ;; Data sizes:     COMMON   BANK0   BANK1   BANK3   BANK2
  3963 ;;      Params:         0       8       0       0       0
  3964 ;;      Locals:         0       4       0       0       0
  3965 ;;      Temps:          0       8       0       0       0
  3966 ;;      Totals:         0      20       0       0       0
  3967 ;;Total ram usage:       20 bytes
  3968 ;; Hardware stack levels used: 1
  3969 ;; This function calls:
  3970 ;;		Nothing
  3971 ;; This function is called by:
  3972 ;;		_interpole
  3973 ;; This function uses a non-reentrant model
  3974 ;;
  3975                           
  3976  037E                     ___fladd:	
  3977                           ;psect for function ___fladd
  3978                           
  3979  037E                     i1l1478:	
  3980                           ;incstack = 0
  3981                           ; Regs used in ___fladd: [wreg+status,2+status,0+btemp+1]
  3982                           
  3983  037E  1283               	bcf	3,5	;RP0=0, select bank0
  3984  037F  1303               	bcf	3,6	;RP1=0, select bank0
  3985  0380  0857               	movf	___fladd@b+3,w
  3986  0381  3980               	andlw	128
  3987  0382  00DC               	movwf	??___fladd
  3988  0383  085C               	movf	??___fladd,w
  3989  0384  00E4               	movwf	___fladd@signs
  3990  0385                     i1l1480:
  3991  0385  0857               	movf	___fladd@b+3,w
  3992  0386  00DC               	movwf	??___fladd
  3993  0387  075C               	addwf	??___fladd,w
  3994  0388  00DD               	movwf	??___fladd+1
  3995  0389  085D               	movf	??___fladd+1,w
  3996  038A  00E6               	movwf	___fladd@bexp
  3997  038B                     i1l1482:
  3998  038B  1FD6               	btfss	___fladd@b+2,7
  3999  038C  2B8E               	goto	u165_21
  4000  038D  2B8F               	goto	u165_20
  4001  038E                     u165_21:
  4002  038E  2B90               	goto	i1l1486
  4003  038F                     u165_20:
  4004  038F                     i1l1484:
  4005  038F  1466               	bsf	___fladd@bexp,0
  4006  0390                     i1l1486:
  4007  0390  0866               	movf	___fladd@bexp,w
  4008  0391  1903               	btfsc	3,2
  4009  0392  2B94               	goto	u166_21
  4010  0393  2B95               	goto	u166_20
  4011  0394                     u166_21:
  4012  0394  2BA5               	goto	i1l1496
  4013  0395                     u166_20:
  4014  0395                     i1l1488:
  4015  0395  0A66               	incf	___fladd@bexp,w
  4016  0396  1D03               	btfss	3,2
  4017  0397  2B99               	goto	u167_21
  4018  0398  2B9A               	goto	u167_20
  4019  0399                     u167_21:
  4020  0399  2BA2               	goto	i1l1492
  4021  039A                     u167_20:
  4022  039A                     i1l1490:
  4023  039A  3000               	movlw	0
  4024  039B  00D7               	movwf	___fladd@b+3
  4025  039C  3000               	movlw	0
  4026  039D  00D6               	movwf	___fladd@b+2
  4027  039E  3000               	movlw	0
  4028  039F  00D5               	movwf	___fladd@b+1
  4029  03A0  3000               	movlw	0
  4030  03A1  00D4               	movwf	___fladd@b
  4031  03A2                     i1l1492:
  4032  03A2  17D6               	bsf	___fladd@b+2,7
  4033  03A3                     i1l1494:
  4034  03A3  01D7               	clrf	___fladd@b+3
  4035  03A4  2BAD               	goto	i1l1498
  4036  03A5                     i1l1496:
  4037  03A5  3000               	movlw	0
  4038  03A6  00D7               	movwf	___fladd@b+3
  4039  03A7  3000               	movlw	0
  4040  03A8  00D6               	movwf	___fladd@b+2
  4041  03A9  3000               	movlw	0
  4042  03AA  00D5               	movwf	___fladd@b+1
  4043  03AB  3000               	movlw	0
  4044  03AC  00D4               	movwf	___fladd@b
  4045  03AD                     i1l1498:
  4046  03AD  085B               	movf	___fladd@a+3,w
  4047  03AE  3980               	andlw	128
  4048  03AF  00DC               	movwf	??___fladd
  4049  03B0  085C               	movf	??___fladd,w
  4050  03B1  00E5               	movwf	___fladd@aexp
  4051  03B2                     i1l1500:
  4052  03B2  0865               	movf	___fladd@aexp,w
  4053  03B3  0664               	xorwf	___fladd@signs,w
  4054  03B4  1903               	skipnz
  4055  03B5  2BB7               	goto	u168_21
  4056  03B6  2BB8               	goto	u168_20
  4057  03B7                     u168_21:
  4058  03B7  2BB9               	goto	i1l1504
  4059  03B8                     u168_20:
  4060  03B8                     i1l1502:
  4061  03B8  1764               	bsf	___fladd@signs,6
  4062  03B9                     i1l1504:
  4063  03B9  085B               	movf	___fladd@a+3,w
  4064  03BA  00DC               	movwf	??___fladd
  4065  03BB  075C               	addwf	??___fladd,w
  4066  03BC  00DD               	movwf	??___fladd+1
  4067  03BD  085D               	movf	??___fladd+1,w
  4068  03BE  00E5               	movwf	___fladd@aexp
  4069  03BF                     i1l1506:
  4070  03BF  1FDA               	btfss	___fladd@a+2,7
  4071  03C0  2BC2               	goto	u169_21
  4072  03C1  2BC3               	goto	u169_20
  4073  03C2                     u169_21:
  4074  03C2  2BC4               	goto	i1l1510
  4075  03C3                     u169_20:
  4076  03C3                     i1l1508:
  4077  03C3  1465               	bsf	___fladd@aexp,0
  4078  03C4                     i1l1510:
  4079  03C4  0865               	movf	___fladd@aexp,w
  4080  03C5  1903               	btfsc	3,2
  4081  03C6  2BC8               	goto	u170_21
  4082  03C7  2BC9               	goto	u170_20
  4083  03C8                     u170_21:
  4084  03C8  2BD9               	goto	i1l1520
  4085  03C9                     u170_20:
  4086  03C9                     i1l1512:
  4087  03C9  0A65               	incf	___fladd@aexp,w
  4088  03CA  1D03               	btfss	3,2
  4089  03CB  2BCD               	goto	u171_21
  4090  03CC  2BCE               	goto	u171_20
  4091  03CD                     u171_21:
  4092  03CD  2BD6               	goto	i1l1516
  4093  03CE                     u171_20:
  4094  03CE                     i1l1514:
  4095  03CE  3000               	movlw	0
  4096  03CF  00DB               	movwf	___fladd@a+3
  4097  03D0  3000               	movlw	0
  4098  03D1  00DA               	movwf	___fladd@a+2
  4099  03D2  3000               	movlw	0
  4100  03D3  00D9               	movwf	___fladd@a+1
  4101  03D4  3000               	movlw	0
  4102  03D5  00D8               	movwf	___fladd@a
  4103  03D6                     i1l1516:
  4104  03D6  17DA               	bsf	___fladd@a+2,7
  4105  03D7                     i1l1518:
  4106  03D7  01DB               	clrf	___fladd@a+3
  4107  03D8  2BE1               	goto	i1l493
  4108  03D9                     i1l1520:
  4109  03D9  3000               	movlw	0
  4110  03DA  00DB               	movwf	___fladd@a+3
  4111  03DB  3000               	movlw	0
  4112  03DC  00DA               	movwf	___fladd@a+2
  4113  03DD  3000               	movlw	0
  4114  03DE  00D9               	movwf	___fladd@a+1
  4115  03DF  3000               	movlw	0
  4116  03E0  00D8               	movwf	___fladd@a
  4117  03E1                     i1l493:
  4118  03E1  0866               	movf	___fladd@bexp,w
  4119  03E2  0265               	subwf	___fladd@aexp,w
  4120  03E3  1803               	skipnc
  4121  03E4  2BE6               	goto	u172_21
  4122  03E5  2BE7               	goto	u172_20
  4123  03E6                     u172_21:
  4124  03E6  2C2B               	goto	i1l1556
  4125  03E7                     u172_20:
  4126  03E7                     i1l1522:
  4127  03E7  1F64               	btfss	___fladd@signs,6
  4128  03E8  2BEA               	goto	u173_21
  4129  03E9  2BEB               	goto	u173_20
  4130  03EA                     u173_21:
  4131  03EA  2BEF               	goto	i1l1526
  4132  03EB                     u173_20:
  4133  03EB                     i1l1524:
  4134  03EB  3080               	movlw	128
  4135  03EC  00DC               	movwf	??___fladd
  4136  03ED  085C               	movf	??___fladd,w
  4137  03EE  06E4               	xorwf	___fladd@signs,f
  4138  03EF                     i1l1526:
  4139  03EF  0866               	movf	___fladd@bexp,w
  4140  03F0  00DC               	movwf	??___fladd
  4141  03F1  085C               	movf	??___fladd,w
  4142  03F2  00E7               	movwf	___fladd@grs
  4143  03F3                     i1l1528:
  4144  03F3  0865               	movf	___fladd@aexp,w
  4145  03F4  00DC               	movwf	??___fladd
  4146  03F5  085C               	movf	??___fladd,w
  4147  03F6  00E6               	movwf	___fladd@bexp
  4148  03F7                     i1l1530:
  4149  03F7  0867               	movf	___fladd@grs,w
  4150  03F8  00DC               	movwf	??___fladd
  4151  03F9  085C               	movf	??___fladd,w
  4152  03FA  00E5               	movwf	___fladd@aexp
  4153  03FB                     i1l1532:
  4154  03FB  0854               	movf	___fladd@b,w
  4155  03FC  00DC               	movwf	??___fladd
  4156  03FD  085C               	movf	??___fladd,w
  4157  03FE  00E7               	movwf	___fladd@grs
  4158  03FF                     i1l1534:
  4159  03FF  0858               	movf	___fladd@a,w
  4160  0400  00DC               	movwf	??___fladd
  4161  0401  085C               	movf	??___fladd,w
  4162  0402  00D4               	movwf	___fladd@b
  4163  0403                     i1l1536:
  4164  0403  0867               	movf	___fladd@grs,w
  4165  0404  00DC               	movwf	??___fladd
  4166  0405  085C               	movf	??___fladd,w
  4167  0406  00D8               	movwf	___fladd@a
  4168  0407                     i1l1538:
  4169  0407  0855               	movf	___fladd@b+1,w
  4170  0408  00DC               	movwf	??___fladd
  4171  0409  085C               	movf	??___fladd,w
  4172  040A  00E7               	movwf	___fladd@grs
  4173  040B                     i1l1540:
  4174  040B  0859               	movf	___fladd@a+1,w
  4175  040C  00DC               	movwf	??___fladd
  4176  040D  085C               	movf	??___fladd,w
  4177  040E  00D5               	movwf	___fladd@b+1
  4178  040F                     i1l1542:
  4179  040F  0867               	movf	___fladd@grs,w
  4180  0410  00DC               	movwf	??___fladd
  4181  0411  085C               	movf	??___fladd,w
  4182  0412  00D9               	movwf	___fladd@a+1
  4183  0413                     i1l1544:
  4184  0413  0856               	movf	___fladd@b+2,w
  4185  0414  00DC               	movwf	??___fladd
  4186  0415  085C               	movf	??___fladd,w
  4187  0416  00E7               	movwf	___fladd@grs
  4188  0417                     i1l1546:
  4189  0417  085A               	movf	___fladd@a+2,w
  4190  0418  00DC               	movwf	??___fladd
  4191  0419  085C               	movf	??___fladd,w
  4192  041A  00D6               	movwf	___fladd@b+2
  4193  041B                     i1l1548:
  4194  041B  0867               	movf	___fladd@grs,w
  4195  041C  00DC               	movwf	??___fladd
  4196  041D  085C               	movf	??___fladd,w
  4197  041E  00DA               	movwf	___fladd@a+2
  4198  041F                     i1l1550:
  4199  041F  0857               	movf	___fladd@b+3,w
  4200  0420  00DC               	movwf	??___fladd
  4201  0421  085C               	movf	??___fladd,w
  4202  0422  00E7               	movwf	___fladd@grs
  4203  0423                     i1l1552:
  4204  0423  085B               	movf	___fladd@a+3,w
  4205  0424  00DC               	movwf	??___fladd
  4206  0425  085C               	movf	??___fladd,w
  4207  0426  00D7               	movwf	___fladd@b+3
  4208  0427                     i1l1554:
  4209  0427  0867               	movf	___fladd@grs,w
  4210  0428  00DC               	movwf	??___fladd
  4211  0429  085C               	movf	??___fladd,w
  4212  042A  00DB               	movwf	___fladd@a+3
  4213  042B                     i1l1556:
  4214  042B  01E7               	clrf	___fladd@grs
  4215  042C                     i1l1558:
  4216  042C  0865               	movf	___fladd@aexp,w
  4217  042D  00DC               	movwf	??___fladd
  4218  042E  01DD               	clrf	??___fladd+1
  4219  042F  085D               	movf	??___fladd+1,w
  4220  0430  00DF               	movwf	??___fladd+3
  4221  0431  0866               	movf	___fladd@bexp,w
  4222  0432  025C               	subwf	??___fladd,w
  4223  0433  00DE               	movwf	??___fladd+2
  4224  0434  1C03               	skipc
  4225  0435  03DF               	decf	??___fladd+3,f
  4226  0436  085F               	movf	??___fladd+3,w
  4227  0437  3A80               	xorlw	128
  4228  0438  00FF               	movwf	btemp+1
  4229  0439  3080               	movlw	128
  4230  043A  027F               	subwf	btemp+1,w
  4231  043B  1D03               	skipz
  4232  043C  2C3F               	goto	u174_25
  4233  043D  301A               	movlw	26
  4234  043E  025E               	subwf	??___fladd+2,w
  4235  043F                     u174_25:
  4236  043F  1C03               	skipc
  4237  0440  2C42               	goto	u174_21
  4238  0441  2C43               	goto	u174_20
  4239  0442                     u174_21:
  4240  0442  2C80               	goto	i1l1574
  4241  0443                     u174_20:
  4242  0443                     i1l1560:
  4243  0443  1283               	bcf	3,5	;RP0=0, select bank0
  4244  0444  1303               	bcf	3,6	;RP1=0, select bank0
  4245  0445  0857               	movf	___fladd@b+3,w
  4246  0446  0456               	iorwf	___fladd@b+2,w
  4247  0447  0455               	iorwf	___fladd@b+1,w
  4248  0448  0454               	iorwf	___fladd@b,w
  4249  0449  1D03               	skipz
  4250  044A  2C4C               	goto	u175_21
  4251  044B  2C4E               	goto	u175_20
  4252  044C                     u175_21:
  4253  044C  3001               	movlw	1
  4254  044D  2C4F               	goto	u176_20
  4255  044E                     u175_20:
  4256  044E  3000               	movlw	0
  4257  044F                     u176_20:
  4258  044F  00DC               	movwf	??___fladd
  4259  0450  085C               	movf	??___fladd,w
  4260  0451  00E7               	movwf	___fladd@grs
  4261  0452  3000               	movlw	0
  4262  0453  00D7               	movwf	___fladd@b+3
  4263  0454  3000               	movlw	0
  4264  0455  00D6               	movwf	___fladd@b+2
  4265  0456  3000               	movlw	0
  4266  0457  00D5               	movwf	___fladd@b+1
  4267  0458  3000               	movlw	0
  4268  0459  00D4               	movwf	___fladd@b
  4269  045A  0865               	movf	___fladd@aexp,w
  4270  045B  00DC               	movwf	??___fladd
  4271  045C  085C               	movf	??___fladd,w
  4272  045D  00E6               	movwf	___fladd@bexp
  4273  045E  2C88               	goto	i1l497
  4274  045F                     i1l499:
  4275  045F  1C67               	btfss	___fladd@grs,0
  4276  0460  2C62               	goto	u177_21
  4277  0461  2C63               	goto	u177_20
  4278  0462                     u177_21:
  4279  0462  2C6C               	goto	i1l1564
  4280  0463                     u177_20:
  4281  0463                     i1l1562:
  4282  0463  0867               	movf	___fladd@grs,w
  4283  0464  00DC               	movwf	??___fladd
  4284  0465  1003               	clrc
  4285  0466  0C5C               	rrf	??___fladd,w
  4286  0467  3801               	iorlw	1
  4287  0468  00DD               	movwf	??___fladd+1
  4288  0469  085D               	movf	??___fladd+1,w
  4289  046A  00E7               	movwf	___fladd@grs
  4290  046B  2C6E               	goto	i1l1566
  4291  046C                     i1l1564:
  4292  046C  1003               	clrc
  4293  046D  0CE7               	rrf	___fladd@grs,f
  4294  046E                     i1l1566:
  4295  046E  1C54               	btfss	___fladd@b,0
  4296  046F  2C71               	goto	u178_21
  4297  0470  2C72               	goto	u178_20
  4298  0471                     u178_21:
  4299  0471  2C73               	goto	i1l1570
  4300  0472                     u178_20:
  4301  0472                     i1l1568:
  4302  0472  17E7               	bsf	___fladd@grs,7
  4303  0473                     i1l1570:
  4304  0473  3001               	movlw	1
  4305  0474  00DC               	movwf	??___fladd
  4306  0475                     u179_25:
  4307  0475  0D57               	rlf	___fladd@b+3,w
  4308  0476  0CD7               	rrf	___fladd@b+3,f
  4309  0477  0CD6               	rrf	___fladd@b+2,f
  4310  0478  0CD5               	rrf	___fladd@b+1,f
  4311  0479  0CD4               	rrf	___fladd@b,f
  4312  047A  0BDC               	decfsz	??___fladd& (0+127),f
  4313  047B  2C75               	goto	u179_25
  4314  047C                     i1l1572:
  4315  047C  3001               	movlw	1
  4316  047D  00DC               	movwf	??___fladd
  4317  047E  085C               	movf	??___fladd,w
  4318  047F  07E6               	addwf	___fladd@bexp,f
  4319  0480                     i1l1574:
  4320  0480  1283               	bcf	3,5	;RP0=0, select bank0
  4321  0481  1303               	bcf	3,6	;RP1=0, select bank0
  4322  0482  0865               	movf	___fladd@aexp,w
  4323  0483  0266               	subwf	___fladd@bexp,w
  4324  0484  1C03               	skipc
  4325  0485  2C87               	goto	u180_21
  4326  0486  2C88               	goto	u180_20
  4327  0487                     u180_21:
  4328  0487  2C5F               	goto	i1l499
  4329  0488                     u180_20:
  4330  0488                     i1l497:
  4331  0488  1B64               	btfsc	___fladd@signs,6
  4332  0489  2C8B               	goto	u181_21
  4333  048A  2C8C               	goto	u181_20
  4334  048B                     u181_21:
  4335  048B  2CD7               	goto	i1l1600
  4336  048C                     u181_20:
  4337  048C                     i1l1576:
  4338  048C  0866               	movf	___fladd@bexp,w
  4339  048D  1D03               	btfss	3,2
  4340  048E  2C90               	goto	u182_21
  4341  048F  2C91               	goto	u182_20
  4342  0490                     u182_21:
  4343  0490  2C9A               	goto	i1l1582
  4344  0491                     u182_20:
  4345  0491                     i1l1578:
  4346  0491  3000               	movlw	0
  4347  0492  00D7               	movwf	?___fladd+3
  4348  0493  3000               	movlw	0
  4349  0494  00D6               	movwf	?___fladd+2
  4350  0495  3000               	movlw	0
  4351  0496  00D5               	movwf	?___fladd+1
  4352  0497  3000               	movlw	0
  4353  0498  00D4               	movwf	?___fladd
  4354  0499  2E05               	goto	i1l506
  4355  049A                     i1l1582:
  4356  049A  0858               	movf	___fladd@a,w
  4357  049B  07D4               	addwf	___fladd@b,f
  4358  049C  0859               	movf	___fladd@a+1,w
  4359  049D  1103               	clrz
  4360  049E  1803               	skipnc
  4361  049F  3E01               	addlw	1
  4362  04A0  1903               	skipnz
  4363  04A1  2CA3               	goto	u183_21
  4364  04A2  07D5               	addwf	___fladd@b+1,f
  4365  04A3                     u183_21:
  4366  04A3  085A               	movf	___fladd@a+2,w
  4367  04A4  1103               	clrz
  4368  04A5  1803               	skipnc
  4369  04A6  3E01               	addlw	1
  4370  04A7  1903               	skipnz
  4371  04A8  2CAA               	goto	u183_22
  4372  04A9  07D6               	addwf	___fladd@b+2,f
  4373  04AA                     u183_22:
  4374  04AA  085B               	movf	___fladd@a+3,w
  4375  04AB  1103               	clrz
  4376  04AC  1803               	skipnc
  4377  04AD  3E01               	addlw	1
  4378  04AE  1903               	skipnz
  4379  04AF  2CB1               	goto	u183_23
  4380  04B0  07D7               	addwf	___fladd@b+3,f
  4381  04B1                     u183_23:
  4382  04B1                     i1l1584:
  4383  04B1  1C57               	btfss	___fladd@b+3,0
  4384  04B2  2CB4               	goto	u184_21
  4385  04B3  2CB5               	goto	u184_20
  4386  04B4                     u184_21:
  4387  04B4  2D8B               	goto	i1l1634
  4388  04B5                     u184_20:
  4389  04B5                     i1l1586:
  4390  04B5  1C67               	btfss	___fladd@grs,0
  4391  04B6  2CB8               	goto	u185_21
  4392  04B7  2CB9               	goto	u185_20
  4393  04B8                     u185_21:
  4394  04B8  2CC2               	goto	i1l1590
  4395  04B9                     u185_20:
  4396  04B9                     i1l1588:
  4397  04B9  0867               	movf	___fladd@grs,w
  4398  04BA  00DC               	movwf	??___fladd
  4399  04BB  1003               	clrc
  4400  04BC  0C5C               	rrf	??___fladd,w
  4401  04BD  3801               	iorlw	1
  4402  04BE  00DD               	movwf	??___fladd+1
  4403  04BF  085D               	movf	??___fladd+1,w
  4404  04C0  00E7               	movwf	___fladd@grs
  4405  04C1  2CC4               	goto	i1l1592
  4406  04C2                     i1l1590:
  4407  04C2  1003               	clrc
  4408  04C3  0CE7               	rrf	___fladd@grs,f
  4409  04C4                     i1l1592:
  4410  04C4  1C54               	btfss	___fladd@b,0
  4411  04C5  2CC7               	goto	u186_21
  4412  04C6  2CC8               	goto	u186_20
  4413  04C7                     u186_21:
  4414  04C7  2CC9               	goto	i1l1596
  4415  04C8                     u186_20:
  4416  04C8                     i1l1594:
  4417  04C8  17E7               	bsf	___fladd@grs,7
  4418  04C9                     i1l1596:
  4419  04C9  3001               	movlw	1
  4420  04CA  00DC               	movwf	??___fladd
  4421  04CB                     u187_25:
  4422  04CB  0D57               	rlf	___fladd@b+3,w
  4423  04CC  0CD7               	rrf	___fladd@b+3,f
  4424  04CD  0CD6               	rrf	___fladd@b+2,f
  4425  04CE  0CD5               	rrf	___fladd@b+1,f
  4426  04CF  0CD4               	rrf	___fladd@b,f
  4427  04D0  0BDC               	decfsz	??___fladd& (0+127),f
  4428  04D1  2CCB               	goto	u187_25
  4429  04D2                     i1l1598:
  4430  04D2  3001               	movlw	1
  4431  04D3  00DC               	movwf	??___fladd
  4432  04D4  085C               	movf	??___fladd,w
  4433  04D5  07E6               	addwf	___fladd@bexp,f
  4434  04D6  2D8B               	goto	i1l1634
  4435  04D7                     i1l1600:
  4436  04D7  0857               	movf	___fladd@b+3,w
  4437  04D8  3A80               	xorlw	128
  4438  04D9  00FF               	movwf	btemp+1
  4439  04DA  085B               	movf	___fladd@a+3,w
  4440  04DB  3A80               	xorlw	128
  4441  04DC  027F               	subwf	btemp+1,w
  4442  04DD  1D03               	skipz
  4443  04DE  2CE9               	goto	u188_23
  4444  04DF  085A               	movf	___fladd@a+2,w
  4445  04E0  0256               	subwf	___fladd@b+2,w
  4446  04E1  1D03               	skipz
  4447  04E2  2CE9               	goto	u188_23
  4448  04E3  0859               	movf	___fladd@a+1,w
  4449  04E4  0255               	subwf	___fladd@b+1,w
  4450  04E5  1D03               	skipz
  4451  04E6  2CE9               	goto	u188_23
  4452  04E7  0858               	movf	___fladd@a,w
  4453  04E8  0254               	subwf	___fladd@b,w
  4454  04E9                     u188_23:
  4455  04E9  1803               	skipnc
  4456  04EA  2CEC               	goto	u188_21
  4457  04EB  2CED               	goto	u188_20
  4458  04EC                     u188_21:
  4459  04EC  2D45               	goto	i1l1610
  4460  04ED                     u188_20:
  4461  04ED                     i1l1602:
  4462  04ED  30FF               	movlw	255
  4463  04EE  00DC               	movwf	??___fladd
  4464  04EF  30FF               	movlw	255
  4465  04F0  00DD               	movwf	??___fladd+1
  4466  04F1  30FF               	movlw	255
  4467  04F2  00DE               	movwf	??___fladd+2
  4468  04F3  30FF               	movlw	255
  4469  04F4  00DF               	movwf	??___fladd+3
  4470  04F5  0858               	movf	___fladd@a,w
  4471  04F6  00E0               	movwf	??___fladd+4
  4472  04F7  0859               	movf	___fladd@a+1,w
  4473  04F8  00E1               	movwf	??___fladd+5
  4474  04F9  085A               	movf	___fladd@a+2,w
  4475  04FA  00E2               	movwf	??___fladd+6
  4476  04FB  085B               	movf	___fladd@a+3,w
  4477  04FC  00E3               	movwf	??___fladd+7
  4478  04FD  0854               	movf	___fladd@b,w
  4479  04FE  02E0               	subwf	??___fladd+4,f
  4480  04FF  0855               	movf	___fladd@b+1,w
  4481  0500  1C03               	skipc
  4482  0501  0F55               	incfsz	___fladd@b+1,w
  4483  0502  2D04               	goto	u189_21
  4484  0503  2D05               	goto	u189_22
  4485  0504                     u189_21:
  4486  0504  02E1               	subwf	??___fladd+5,f
  4487  0505                     u189_22:
  4488  0505  0856               	movf	___fladd@b+2,w
  4489  0506  1C03               	skipc
  4490  0507  0F56               	incfsz	___fladd@b+2,w
  4491  0508  2D0A               	goto	u189_23
  4492  0509  2D0B               	goto	u189_24
  4493  050A                     u189_23:
  4494  050A  02E2               	subwf	??___fladd+6,f
  4495  050B                     u189_24:
  4496  050B  0857               	movf	___fladd@b+3,w
  4497  050C  1C03               	skipc
  4498  050D  0F57               	incfsz	___fladd@b+3,w
  4499  050E  2D10               	goto	u189_25
  4500  050F  2D11               	goto	u189_26
  4501  0510                     u189_25:
  4502  0510  02E3               	subwf	??___fladd+7,f
  4503  0511                     u189_26:
  4504  0511  0860               	movf	??___fladd+4,w
  4505  0512  07DC               	addwf	??___fladd,f
  4506  0513  0861               	movf	??___fladd+5,w
  4507  0514  1803               	skipnc
  4508  0515  0F61               	incfsz	??___fladd+5,w
  4509  0516  2D18               	goto	u190_20
  4510  0517  2D19               	goto	u190_21
  4511  0518                     u190_20:
  4512  0518  07DD               	addwf	??___fladd+1,f
  4513  0519                     u190_21:
  4514  0519  0862               	movf	??___fladd+6,w
  4515  051A  1803               	skipnc
  4516  051B  0F62               	incfsz	??___fladd+6,w
  4517  051C  2D1E               	goto	u190_22
  4518  051D  2D1F               	goto	u190_23
  4519  051E                     u190_22:
  4520  051E  07DE               	addwf	??___fladd+2,f
  4521  051F                     u190_23:
  4522  051F  0863               	movf	??___fladd+7,w
  4523  0520  1803               	skipnc
  4524  0521  0A63               	incf	??___fladd+7,w
  4525  0522  07DF               	addwf	??___fladd+3,f
  4526  0523  085F               	movf	??___fladd+3,w
  4527  0524  00D7               	movwf	___fladd@b+3
  4528  0525  085E               	movf	??___fladd+2,w
  4529  0526  00D6               	movwf	___fladd@b+2
  4530  0527  085D               	movf	??___fladd+1,w
  4531  0528  00D5               	movwf	___fladd@b+1
  4532  0529  085C               	movf	??___fladd,w
  4533  052A  00D4               	movwf	___fladd@b
  4534  052B                     i1l1604:
  4535  052B  3080               	movlw	128
  4536  052C  00DC               	movwf	??___fladd
  4537  052D  085C               	movf	??___fladd,w
  4538  052E  06E4               	xorwf	___fladd@signs,f
  4539  052F  09E7               	comf	___fladd@grs,f
  4540  0530  0AE7               	incf	___fladd@grs,f
  4541  0531                     i1l1606:
  4542  0531  0867               	movf	___fladd@grs,w
  4543  0532  1D03               	btfss	3,2
  4544  0533  2D35               	goto	u191_21
  4545  0534  2D36               	goto	u191_20
  4546  0535                     u191_21:
  4547  0535  2D53               	goto	i1l514
  4548  0536                     u191_20:
  4549  0536                     i1l1608:
  4550  0536  3001               	movlw	1
  4551  0537  07D4               	addwf	___fladd@b,f
  4552  0538  3000               	movlw	0
  4553  0539  1803               	skipnc
  4554  053A  3001               	movlw	1
  4555  053B  07D5               	addwf	___fladd@b+1,f
  4556  053C  3000               	movlw	0
  4557  053D  1803               	skipnc
  4558  053E  3001               	movlw	1
  4559  053F  07D6               	addwf	___fladd@b+2,f
  4560  0540  3000               	movlw	0
  4561  0541  1803               	skipnc
  4562  0542  3001               	movlw	1
  4563  0543  07D7               	addwf	___fladd@b+3,f
  4564  0544  2D53               	goto	i1l514
  4565  0545                     i1l1610:
  4566  0545  0858               	movf	___fladd@a,w
  4567  0546  02D4               	subwf	___fladd@b,f
  4568  0547  0859               	movf	___fladd@a+1,w
  4569  0548  1C03               	skipc
  4570  0549  0F59               	incfsz	___fladd@a+1,w
  4571  054A  02D5               	subwf	___fladd@b+1,f
  4572  054B  085A               	movf	___fladd@a+2,w
  4573  054C  1C03               	skipc
  4574  054D  0F5A               	incfsz	___fladd@a+2,w
  4575  054E  02D6               	subwf	___fladd@b+2,f
  4576  054F  085B               	movf	___fladd@a+3,w
  4577  0550  1C03               	skipc
  4578  0551  0F5B               	incfsz	___fladd@a+3,w
  4579  0552  02D7               	subwf	___fladd@b+3,f
  4580  0553                     i1l514:
  4581  0553  0857               	movf	___fladd@b+3,w
  4582  0554  0456               	iorwf	___fladd@b+2,w
  4583  0555  0455               	iorwf	___fladd@b+1,w
  4584  0556  0454               	iorwf	___fladd@b,w
  4585  0557  1D03               	skipz
  4586  0558  2D5A               	goto	u192_21
  4587  0559  2D5B               	goto	u192_20
  4588  055A                     u192_21:
  4589  055A  2D87               	goto	i1l1632
  4590  055B                     u192_20:
  4591  055B                     i1l1612:
  4592  055B  0867               	movf	___fladd@grs,w
  4593  055C  1D03               	btfss	3,2
  4594  055D  2D5F               	goto	u193_21
  4595  055E  2D60               	goto	u193_20
  4596  055F                     u193_21:
  4597  055F  2D87               	goto	i1l1632
  4598  0560                     u193_20:
  4599  0560                     i1l1614:
  4600  0560  3000               	movlw	0
  4601  0561  00D7               	movwf	?___fladd+3
  4602  0562  3000               	movlw	0
  4603  0563  00D6               	movwf	?___fladd+2
  4604  0564  3000               	movlw	0
  4605  0565  00D5               	movwf	?___fladd+1
  4606  0566  3000               	movlw	0
  4607  0567  00D4               	movwf	?___fladd
  4608  0568  2E05               	goto	i1l506
  4609  0569                     i1l1618:
  4610  0569  3001               	movlw	1
  4611  056A  00DC               	movwf	??___fladd
  4612  056B                     u194_25:
  4613  056B  1003               	clrc
  4614  056C  0DD4               	rlf	___fladd@b,f
  4615  056D  0DD5               	rlf	___fladd@b+1,f
  4616  056E  0DD6               	rlf	___fladd@b+2,f
  4617  056F  0DD7               	rlf	___fladd@b+3,f
  4618  0570  0BDC               	decfsz	??___fladd,f
  4619  0571  2D6B               	goto	u194_25
  4620  0572                     i1l1620:
  4621  0572  1FE7               	btfss	___fladd@grs,7
  4622  0573  2D75               	goto	u195_21
  4623  0574  2D76               	goto	u195_20
  4624  0575                     u195_21:
  4625  0575  2D77               	goto	i1l518
  4626  0576                     u195_20:
  4627  0576                     i1l1622:
  4628  0576  1454               	bsf	___fladd@b,0
  4629  0577                     i1l518:
  4630  0577  1C67               	btfss	___fladd@grs,0
  4631  0578  2D7A               	goto	u196_21
  4632  0579  2D7B               	goto	u196_20
  4633  057A                     u196_21:
  4634  057A  2D7E               	goto	i1l1626
  4635  057B                     u196_20:
  4636  057B                     i1l1624:
  4637  057B  1403               	setc
  4638  057C  0DE7               	rlf	___fladd@grs,f
  4639  057D  2D80               	goto	i1l1628
  4640  057E                     i1l1626:
  4641  057E  1003               	clrc
  4642  057F  0DE7               	rlf	___fladd@grs,f
  4643  0580                     i1l1628:
  4644  0580  0866               	movf	___fladd@bexp,w
  4645  0581  1903               	btfsc	3,2
  4646  0582  2D84               	goto	u197_21
  4647  0583  2D85               	goto	u197_20
  4648  0584                     u197_21:
  4649  0584  2D87               	goto	i1l1632
  4650  0585                     u197_20:
  4651  0585                     i1l1630:
  4652  0585  3001               	movlw	1
  4653  0586  02E6               	subwf	___fladd@bexp,f
  4654  0587                     i1l1632:
  4655  0587  1FD6               	btfss	___fladd@b+2,7
  4656  0588  2D8A               	goto	u198_21
  4657  0589  2D8B               	goto	u198_20
  4658  058A                     u198_21:
  4659  058A  2D69               	goto	i1l1618
  4660  058B                     u198_20:
  4661  058B                     i1l1634:
  4662  058B  01E5               	clrf	___fladd@aexp
  4663  058C                     i1l1636:
  4664  058C  1FE7               	btfss	___fladd@grs,7
  4665  058D  2D8F               	goto	u199_21
  4666  058E  2D90               	goto	u199_20
  4667  058F                     u199_21:
  4668  058F  2D9E               	goto	i1l1644
  4669  0590                     u199_20:
  4670  0590                     i1l1638:
  4671  0590  0867               	movf	___fladd@grs,w
  4672  0591  397F               	andlw	127
  4673  0592  1903               	btfsc	3,2
  4674  0593  2D95               	goto	u200_21
  4675  0594  2D96               	goto	u200_20
  4676  0595                     u200_21:
  4677  0595  2D99               	goto	i1l524
  4678  0596                     u200_20:
  4679  0596                     i1l1640:
  4680  0596  01E5               	clrf	___fladd@aexp
  4681  0597  0AE5               	incf	___fladd@aexp,f
  4682  0598  2D9E               	goto	i1l1644
  4683  0599                     i1l524:
  4684  0599  1C54               	btfss	___fladd@b,0
  4685  059A  2D9C               	goto	u201_21
  4686  059B  2D9D               	goto	u201_20
  4687  059C                     u201_21:
  4688  059C  2D9E               	goto	i1l1644
  4689  059D                     u201_20:
  4690  059D  2D96               	goto	i1l1640
  4691  059E                     i1l1644:
  4692  059E  0865               	movf	___fladd@aexp,w
  4693  059F  1903               	btfsc	3,2
  4694  05A0  2DA2               	goto	u202_21
  4695  05A1  2DA3               	goto	u202_20
  4696  05A2                     u202_21:
  4697  05A2  2DD7               	goto	i1l527
  4698  05A3                     u202_20:
  4699  05A3                     i1l1646:
  4700  05A3  3001               	movlw	1
  4701  05A4  07D4               	addwf	___fladd@b,f
  4702  05A5  3000               	movlw	0
  4703  05A6  1803               	skipnc
  4704  05A7  3001               	movlw	1
  4705  05A8  07D5               	addwf	___fladd@b+1,f
  4706  05A9  3000               	movlw	0
  4707  05AA  1803               	skipnc
  4708  05AB  3001               	movlw	1
  4709  05AC  07D6               	addwf	___fladd@b+2,f
  4710  05AD  3000               	movlw	0
  4711  05AE  1803               	skipnc
  4712  05AF  3001               	movlw	1
  4713  05B0  07D7               	addwf	___fladd@b+3,f
  4714  05B1                     i1l1648:
  4715  05B1  1C57               	btfss	___fladd@b+3,0
  4716  05B2  2DB4               	goto	u203_21
  4717  05B3  2DB5               	goto	u203_20
  4718  05B4                     u203_21:
  4719  05B4  2DD7               	goto	i1l527
  4720  05B5                     u203_20:
  4721  05B5                     i1l1650:
  4722  05B5  0854               	movf	___fladd@b,w
  4723  05B6  00DC               	movwf	??___fladd
  4724  05B7  0855               	movf	___fladd@b+1,w
  4725  05B8  00DD               	movwf	??___fladd+1
  4726  05B9  0856               	movf	___fladd@b+2,w
  4727  05BA  00DE               	movwf	??___fladd+2
  4728  05BB  0857               	movf	___fladd@b+3,w
  4729  05BC  00DF               	movwf	??___fladd+3
  4730  05BD  3001               	movlw	1
  4731  05BE  00E0               	movwf	??___fladd+4
  4732  05BF                     u204_25:
  4733  05BF  0D5F               	rlf	??___fladd+3,w
  4734  05C0  0CDF               	rrf	??___fladd+3,f
  4735  05C1  0CDE               	rrf	??___fladd+2,f
  4736  05C2  0CDD               	rrf	??___fladd+1,f
  4737  05C3  0CDC               	rrf	??___fladd,f
  4738  05C4                     u204_20:
  4739  05C4  0BE0               	decfsz	??___fladd+4,f
  4740  05C5  2DBF               	goto	u204_25
  4741  05C6  085F               	movf	??___fladd+3,w
  4742  05C7  00D7               	movwf	___fladd@b+3
  4743  05C8  085E               	movf	??___fladd+2,w
  4744  05C9  00D6               	movwf	___fladd@b+2
  4745  05CA  085D               	movf	??___fladd+1,w
  4746  05CB  00D5               	movwf	___fladd@b+1
  4747  05CC  085C               	movf	??___fladd,w
  4748  05CD  00D4               	movwf	___fladd@b
  4749  05CE  0A66               	incf	___fladd@bexp,w
  4750  05CF  1903               	btfsc	3,2
  4751  05D0  2DD2               	goto	u205_21
  4752  05D1  2DD3               	goto	u205_20
  4753  05D2                     u205_21:
  4754  05D2  2DD7               	goto	i1l527
  4755  05D3                     u205_20:
  4756  05D3                     i1l1652:
  4757  05D3  3001               	movlw	1
  4758  05D4  00DC               	movwf	??___fladd
  4759  05D5  085C               	movf	??___fladd,w
  4760  05D6  07E6               	addwf	___fladd@bexp,f
  4761  05D7                     i1l527:
  4762  05D7  0A66               	incf	___fladd@bexp,w
  4763  05D8  1903               	btfsc	3,2
  4764  05D9  2DDB               	goto	u206_21
  4765  05DA  2DDC               	goto	u206_20
  4766  05DB                     u206_21:
  4767  05DB  2DE1               	goto	i1l1656
  4768  05DC                     u206_20:
  4769  05DC                     i1l1654:
  4770  05DC  0866               	movf	___fladd@bexp,w
  4771  05DD  1D03               	btfss	3,2
  4772  05DE  2DE0               	goto	u207_21
  4773  05DF  2DE1               	goto	u207_20
  4774  05E0                     u207_21:
  4775  05E0  2DEF               	goto	i1l1662
  4776  05E1                     u207_20:
  4777  05E1                     i1l1656:
  4778  05E1  3000               	movlw	0
  4779  05E2  00D7               	movwf	___fladd@b+3
  4780  05E3  3000               	movlw	0
  4781  05E4  00D6               	movwf	___fladd@b+2
  4782  05E5  3000               	movlw	0
  4783  05E6  00D5               	movwf	___fladd@b+1
  4784  05E7  3000               	movlw	0
  4785  05E8  00D4               	movwf	___fladd@b
  4786  05E9                     i1l1658:
  4787  05E9  0866               	movf	___fladd@bexp,w
  4788  05EA  1D03               	btfss	3,2
  4789  05EB  2DED               	goto	u208_21
  4790  05EC  2DEE               	goto	u208_20
  4791  05ED                     u208_21:
  4792  05ED  2DEF               	goto	i1l1662
  4793  05EE                     u208_20:
  4794  05EE                     i1l1660:
  4795  05EE  01E4               	clrf	___fladd@signs
  4796  05EF                     i1l1662:
  4797  05EF  1C66               	btfss	___fladd@bexp,0
  4798  05F0  2DF2               	goto	u209_21
  4799  05F1  2DF3               	goto	u209_20
  4800  05F2                     u209_21:
  4801  05F2  2DF5               	goto	i1l1666
  4802  05F3                     u209_20:
  4803  05F3                     i1l1664:
  4804  05F3  17D6               	bsf	___fladd@b+2,7
  4805  05F4  2DF9               	goto	i1l535
  4806  05F5                     i1l1666:
  4807  05F5  307F               	movlw	127
  4808  05F6  00DC               	movwf	??___fladd
  4809  05F7  085C               	movf	??___fladd,w
  4810  05F8  05D6               	andwf	___fladd@b+2,f
  4811  05F9                     i1l535:
  4812  05F9  0866               	movf	___fladd@bexp,w
  4813  05FA  00DC               	movwf	??___fladd
  4814  05FB  1003               	clrc
  4815  05FC  0C5C               	rrf	??___fladd,w
  4816  05FD  00DD               	movwf	??___fladd+1
  4817  05FE  085D               	movf	??___fladd+1,w
  4818  05FF  00D7               	movwf	___fladd@b+3
  4819  0600                     i1l1668:
  4820  0600  1FE4               	btfss	___fladd@signs,7
  4821  0601  2E03               	goto	u210_21
  4822  0602  2E04               	goto	u210_20
  4823  0603                     u210_21:
  4824  0603  2E05               	goto	i1l536
  4825  0604                     u210_20:
  4826  0604                     i1l1670:
  4827  0604  17D7               	bsf	___fladd@b+3,7
  4828  0605                     i1l536:
  4829  0605                     i1l506:
  4830  0605  0008               	return
  4831  0606                     __end_of___fladd:
  4832  007E                     btemp	set	126	;btemp
  4833  007E                     wtemp0	set	126
  4834                           
  4835                           	psect	idloc
  4836                           
  4837                           ;Config register IDLOC0 @ 0x2000
  4838                           ;	unspecified, using default values
  4839  2000                     	org	8192
  4840  2000  3FFF               	dw	16383
  4841                           
  4842                           ;Config register IDLOC1 @ 0x2001
  4843                           ;	unspecified, using default values
  4844  2001                     	org	8193
  4845  2001  3FFF               	dw	16383
  4846                           
  4847                           ;Config register IDLOC2 @ 0x2002
  4848                           ;	unspecified, using default values
  4849  2002                     	org	8194
  4850  2002  3FFF               	dw	16383
  4851                           
  4852                           ;Config register IDLOC3 @ 0x2003
  4853                           ;	unspecified, using default values
  4854  2003                     	org	8195
  4855  2003  3FFF               	dw	16383
  4856                           
  4857                           	psect	config
  4858                           
  4859                           ;Config register CONFIG1 @ 0x2007
  4860                           ;	Oscillator Selection bits
  4861                           ;	FOSC = INTRC_NOCLKOUT, INTOSCIO oscillator: I/O function on RA6/OSC2/CLKOUT pin, I/O f
      +                          unction on RA7/OSC1/CLKIN
  4862                           ;	Watchdog Timer Enable bit
  4863                           ;	WDTE = OFF, WDT disabled and can be enabled by SWDTEN bit of the WDTCON register
  4864                           ;	Power-up Timer Enable bit
  4865                           ;	PWRTE = OFF, PWRT disabled
  4866                           ;	RE3/MCLR pin function select bit
  4867                           ;	MCLRE = OFF, RE3/MCLR pin function is digital input, MCLR internally tied to VDD
  4868                           ;	Code Protection bit
  4869                           ;	CP = OFF, Program memory code protection is disabled
  4870                           ;	Data Code Protection bit
  4871                           ;	CPD = OFF, Data memory code protection is disabled
  4872                           ;	Brown Out Reset Selection bits
  4873                           ;	BOREN = OFF, BOR disabled
  4874                           ;	Internal External Switchover bit
  4875                           ;	IESO = OFF, Internal/External Switchover mode is disabled
  4876                           ;	Fail-Safe Clock Monitor Enabled bit
  4877                           ;	FCMEN = OFF, Fail-Safe Clock Monitor is disabled
  4878                           ;	Low Voltage Programming Enable bit
  4879                           ;	LVP = OFF, RB3 pin has digital I/O, HV on MCLR must be used for programming
  4880                           ;	In-Circuit Debugger Mode bit
  4881                           ;	DEBUG = 0x1, unprogrammed default
  4882  2007                     	org	8199
  4883  2007  20D4               	dw	8404
  4884                           
  4885                           ;Config register CONFIG2 @ 0x2008
  4886                           ;	Brown-out Reset Selection bit
  4887                           ;	BOR4V = BOR40V, Brown-out Reset set to 4.0V
  4888                           ;	Flash Program Memory Self Write Enable bits
  4889                           ;	WRT = OFF, Write protection off
  4890  2008                     	org	8200
  4891  2008  3FFF               	dw	16383

Data Sizes:
    Strings     0
    Constant    0
    Data        0
    BSS         4
    Persistent  0
    Stack       0

Auto Spaces:
    Space          Size  Autos    Used
    COMMON           14     14      14
    BANK0            80     80      80
    BANK1            80     20      24
    BANK3            96      0       0
    BANK2            96      0       0

Pointer List with Targets:

    None.

Critical Paths under _main in COMMON

    None.

Critical Paths under _isr in COMMON

    _interpole->___xxtofl
    ___fltol->___xxtofl
    ___flmul->___xxtofl
    ___fldiv->___xxtofl
    ___fladd->___xxtofl

Critical Paths under _main in BANK0

    None.

Critical Paths under _isr in BANK0

    _isr->_move_servo
    _move_servo->_interpole
    _interpole->___fltol
    ___fltol->___fladd
    ___flmul->___fldiv
    ___fladd->___flmul

Critical Paths under _main in BANK1

    None.

Critical Paths under _isr in BANK1

    _isr->_move_servo
    _move_servo->_interpole
    _interpole->___fltol

Critical Paths under _main in BANK3

    None.

Critical Paths under _isr in BANK3

    None.

Critical Paths under _main in BANK2

    None.

Critical Paths under _isr in BANK2

    None.

Call Graph Tables:

 ---------------------------------------------------------------------------------
 (Depth) Function   	        Calls       Base Space   Used Autos Params    Refs
 ---------------------------------------------------------------------------------
 (0) _main                                                 1     1      0       0
                                             19 BANK1      1     1      0
                              _setup
 ---------------------------------------------------------------------------------
 (1) _setup                                                0     0      0       0
 ---------------------------------------------------------------------------------
 Estimated maximum stack depth 1
 ---------------------------------------------------------------------------------
 (Depth) Function   	        Calls       Base Space   Used Autos Params    Refs
 ---------------------------------------------------------------------------------
 (2) _isr                                                  4     4      0    8127
                                             15 BANK1      4     4      0
                         _move_servo
                          _send_data
 ---------------------------------------------------------------------------------
 (3) _send_data                                            2     1      1     196
                                              0 COMMON     2     1      1
 ---------------------------------------------------------------------------------
 (3) _move_servo                                           5     3      2    7931
                                             79 BANK0      1     1      0
                                             11 BANK1      4     2      2
                          _interpole
 ---------------------------------------------------------------------------------
 (4) _interpole                                            7     1      6    7645
                                             78 BANK0      1     1      0
                                              5 BANK1      6     0      6
                            ___fladd
                            ___fldiv
                            ___flmul
                            ___fltol
                           ___xxtofl
 ---------------------------------------------------------------------------------
 (5) ___xxtofl                                            14    10      4     626
                                              0 COMMON    14    10      4
 ---------------------------------------------------------------------------------
 (5) ___fltol                                             11     7      4     305
                                             72 BANK0      6     2      4
                                              0 BANK1      5     5      0
                            ___fladd (ARG)
                            ___fldiv (ARG)
                            ___flmul (ARG)
                           ___xxtofl (ARG)
 ---------------------------------------------------------------------------------
 (5) ___flmul                                             26    18      8    2417
                                             26 BANK0     26    18      8
                          __Umul8_16
                            ___fldiv (ARG)
                           ___xxtofl (ARG)
 ---------------------------------------------------------------------------------
 (6) __Umul8_16                                            9     7      2     799
                                              0 COMMON     9     7      2
 ---------------------------------------------------------------------------------
 (5) ___fldiv                                             26    18      8    1273
                                              0 BANK0     26    18      8
                           ___xxtofl (ARG)
 ---------------------------------------------------------------------------------
 (5) ___fladd                                             20    12      8    2262
                                             52 BANK0     20    12      8
                            ___fldiv (ARG)
                            ___flmul (ARG)
                           ___xxtofl (ARG)
 ---------------------------------------------------------------------------------
 Estimated maximum stack depth 6
 ---------------------------------------------------------------------------------

 Call Graph Graphs:

 _main (ROOT)
   _setup

 _isr (ROOT)
   _move_servo
     _interpole
       ___fladd
         ___fldiv (ARG)
           ___xxtofl (ARG)
         ___flmul (ARG)
           __Umul8_16
           ___fldiv (ARG)
           ___xxtofl (ARG)
         ___xxtofl (ARG)
       ___fldiv
       ___flmul
       ___fltol
         ___fladd (ARG)
         ___fldiv (ARG)
         ___flmul (ARG)
         ___xxtofl (ARG)
       ___xxtofl
   _send_data

 Address spaces:
Name               Size   Autos  Total    Cost      Usage
BITCOMMON            E      0       0       0        0.0%
EEDATA             100      0       0       0        0.0%
NULL                 0      0       0       0        0.0%
CODE                 0      0       0       0        0.0%
COMMON               E      E       E       1      100.0%
BITSFR0              0      0       0       1        0.0%
SFR0                 0      0       0       1        0.0%
BITSFR1              0      0       0       2        0.0%
SFR1                 0      0       0       2        0.0%
STACK                0      0       0       2        0.0%
ABS                  0      0      76       3        0.0%
BITBANK0            50      0       0       4        0.0%
BITSFR3              0      0       0       4        0.0%
SFR3                 0      0       0       4        0.0%
BANK0               50     50      50       5      100.0%
BITSFR2              0      0       0       5        0.0%
SFR2                 0      0       0       5        0.0%
BITBANK1            50      0       0       6        0.0%
BANK1               50     14      18       7       30.0%
BITBANK3            60      0       0       8        0.0%
BANK3               60      0       0       9        0.0%
BITBANK2            60      0       0      10        0.0%
BANK2               60      0       0      11        0.0%
DATA                 0      0      76      12        0.0%


Microchip Technology PIC Macro Assembler V2.35 build 20211206165544 
Symbol Table                                                                                   Thu May 26 17:37:05 2022

           ___fldiv@aexp 0039             ___fldiv@bexp 0038             ___fldiv@sign 0031  
            _SSPSTATbits 0094                       l96 0D46                       l98 0D4A  
                     l99 0D63      __Umul8_16@word_mpld 0076                      _PR2 0092  
                    _isr 0C86             ___flmul@aexp 004C             ___flmul@bexp 004D  
           ___flmul@sign 0047             ___flmul@temp 0052             ___flmul@prod 004E  
           ___fltol@exp1 006D                     l2100 0D5F                     l2102 0D60  
                   l2030 0CF5                     l2040 0D10                     l2032 0D02  
                   l2050 0D21                     l2042 0D16                     l2034 0D06  
                   l2026 0CF0                     l2130 0C34                     l2060 0D2D  
                   l2052 0D24                     l2044 0D19                     l2036 0D09  
                   l2028 0CF4                     l2140 0C60                     l2132 0C3A  
                   l2070 0D3C                     l2062 0D30                     l2054 0D27  
                   l2046 0D1A                     l2038 0D0F                     l2142 0C6D  
                   l2134 0C45                     l2080 0D43                     l2072 0D3E  
                   l2064 0D32                     l2056 0D2A                     l2048 0D1E  
                   l2144 0C74                     l2136 0C4C                     l2128 0C2F  
                   l2090 0D55                     l2082 0D45                     l2074 0D40  
                   l2066 0D36                     l2058 0D2B                     l2138 0C59  
                   l2146 0C78                     l2092 0D58                     l2084 0D4F  
                   l2076 0D41                     l2068 0D3A                     l2148 0C7F  
                   l2094 0D59                     l2086 0D53                     l2078 0D42  
                   l2096 0D5D                     l2088 0D54                     l2098 0D5E  
                   ?_isr 0070                     u3000 0C45                     u3001 0C44  
                   u3010 0C59                     u3011 0C58                     u3020 0C6D  
                   u3021 0C6C                     u3037 0C7C                     u2940 0D4A  
                   u2941 0D49                     u2990 0C3A                     u2991 0C39  
                   i1l78 0CE5                     _main 0C2F                     btemp 007E  
                   start 0010          ___fldiv@new_exp 0032                    ??_isr 00AF  
          ___fltol@sign1 006C          __end_of___fladd 0606                    ?_main 0070  
        __end_of___fldiv 07E3          __end_of___flmul 037E          __end_of___fltol 0E94  
                  _ANSEL 0188                    i1l102 0F45                    i1l111 07EE  
                  i1l113 07F4                    i1l114 07F7                    i1l107 0DF7  
                  i1l601 0371                    i1l514 0553                    i1l506 0605  
                  i1l610 0C2E                    i1l524 0599                    i1l518 0577  
                  i1l535 05F9                    i1l527 05D7                    i1l551 07E2  
                  i1l536 0605                    i1l608 0C1C                    i1l393 0E7E  
                  i1l633 0F68                    i1l386 0E93                    i1l571 07C6  
                  i1l635 0FFF                    i1l396 0E93                    i1l493 03E1  
                  i1l573 07D6                    i1l565 0754                    i1l549 0662  
                  i1l646 0FC9                    i1l647 0FD5                    i1l639 0FAD  
                  i1l497 0488                    i1l499 045F                    i1l595 02E9  
                  i1l589 037D                    _PORTA 0005                    _PORTC 0007  
                  _PORTD 0008                    _TRISA 0085                    _TRISC 0087  
                  _TRISD 0088                    _setup 0CF0                    pclath 000A  
                  status 0003                    wtemp0 007E          __initialization 0013  
           __end_of_main 0C86                   ??_main 00B3                   _ADRESH 001E  
                 _CCPR1L 0015                   _CCPR2L 001B                   _CCPR_1 00B6  
                 _CCPR_2 00B4                   ?_setup 0070                   _ANSELH 0189  
                 i1l2010 0DA9                   i1l2002 0D67                   i1l2012 0DC6  
                 i1l2004 0D6C                   i1l2020 07E4                   i1l2014 0DD4  
                 i1l2006 0D89                   i1l2022 07E9                   i1l2110 0CA2  
                 i1l2016 0DE5                   i1l2008 0D97                   i1l2024 07EC  
                 i1l2120 0CD5                   i1l2112 0CAF                   i1l2104 0C86  
                 i1l2122 0CDF                   i1l2114 0CB9                   i1l2106 0C8C  
                 i1l1500 03B2                   i1l2116 0CBD                   i1l2124 0CE2  
                 i1l2108 0C97                   i1l1510 03C4                   i1l1502 03B8  
                 i1l1430 0C0B                   i1l2118 0CCA                   u200_20 0596  
                 i1l1600 04D7                   i1l1512 03C9                   i1l1520 03D9  
                 i1l1504 03B9                   i1l1432 0C12                   u200_21 0595  
                 i1l1602 04ED                   i1l1610 0545                   i1l1530 03F7  
                 i1l1522 03E7                   i1l1514 03CE                   i1l1506 03BF  
                 i1l1434 0C16                   i1l1450 0E37                   i1l1442 0DF8  
                 i1l1620 0572                   i1l1612 055B                   i1l1604 052B  
                 i1l1540 040B                   i1l1532 03FB                   i1l1524 03EB  
                 i1l1516 03D6                   i1l1508 03C3                   i1l1700 0645  
                 i1l1436 0C25                   i1l1428 0C09                   i1l1452 0E38  
                 i1l1444 0E09                   i1l1630 0585                   i1l1622 0576  
                 i1l1614 0560                   i1l1606 0531                   i1l1550 041F  
                 i1l1542 040F                   i1l1534 03FF                   i1l1526 03EF  
                 i1l1518 03D7                   i1l1702 064A                   i1l1710 065A  
                 i1l1438 0C2A                   i1l1454 0E40                   u201_20 059D  
                 i1l1640 0596                   i1l1624 057B                   i1l1632 0587  
                 i1l1608 0536                   i1l1560 0443                   i1l1552 0423  
                 i1l1544 0413                   i1l1536 0403                   i1l1528 03F3  
                 i1l1480 0385                   i1l1800 07BD                   i1l1712 066A  
                 i1l1720 0683                   i1l1704 064F                   i1l1472 0E6B  
                 i1l1464 0E4E                   i1l1456 0E42                   i1l1448 0E12  
                 u201_21 059C                   i1l1650 05B5                   i1l1626 057E  
                 i1l1618 0569                   i1l1634 058B                   i1l1570 0473  
                 i1l1562 0463                   i1l1554 0427                   i1l1546 0417  
                 i1l1538 0407                   i1l1490 039A                   i1l1482 038B  
                 i1l1802 07C5                   i1l1730 06AB                   i1l1722 0688  
                 i1l1714 0676                   i1l1706 0657                   i1l1474 0E83  
                 i1l1458 0E46                   i1l1466 0E64                   i1l1660 05EE  
                 i1l1652 05D3                   i1l1644 059E                   i1l1636 058C  
                 i1l1628 0580                   i1l1572 047C                   i1l1564 046C  
                 i1l1548 041B                   i1l1556 042B                   i1l1492 03A2  
                 i1l1484 038F                   i1l1804 07CC                   i1l1740 06D4  
                 i1l1732 06B3                   i1l1716 067A                   i1l1708 0658  
                 i1l1900 02AC                   i1l1820 002E                   i1l1476 0E88  
                 i1l1670 0604                   i1l1662 05EF                   i1l1654 05DC  
                 i1l1646 05A3                   i1l1638 0590                   i1l1590 04C2  
                 i1l1582 049A                   i1l1566 046E                   i1l1574 0480  
                 i1l1558 042C                   i1l1494 03A3                   i1l1486 0390  
                 i1l1478 037E                   i1l1806 07D0                   i1l1750 06F5  
                 i1l1742 06D8                   i1l1734 06BB                   i1l1726 0691  
                 i1l1902 02B5                   i1l1910 02C9                   i1l1830 0043  
                 i1l1822 002F                   i1l1814 001D                   u210_20 0604  
                 i1l1664 05F3                   i1l1656 05E1                   i1l1648 05B1  
                 u202_20 05A3                   i1l1592 04C4                   i1l1584 04B1  
                 i1l1576 048C                   i1l1568 0472                   i1l1488 0395  
                 i1l1496 03A5                   i1l1808 07D2                   i1l1760 0717  
                 i1l1752 0703                   i1l1744 06D9                   i1l1736 06BD  
                 i1l1728 06A3                   i1l1680 0618                   i1l1672 0606  
                 i1l1912 02CD                   i1l1904 02B9                   i1l1840 005B  
                 i1l1832 004B                   i1l1824 0034                   i1l1816 0024  
                 u210_21 0603                   u202_21 05A2                   i1l1666 05F5  
                 i1l1658 05E9                   i1l1594 04C8                   i1l1586 04B5  
                 i1l1578 0491                   i1l1498 03AD                   i1l1762 0720  
                 i1l1770 0734                   i1l1738 06C2                   i1l1746 06E2  
                 i1l1754 0707                   i1l1682 061D                   i1l1690 062D  
                 i1l1674 060D                   i1l1930 031E                   i1l1922 02EE  
                 i1l1914 02CE                   i1l1906 02BA                   i1l1850 0077  
                 i1l1842 0060                   i1l1834 0050                   i1l1826 0039  
                 i1l1818 002A                   i1l1668 0600                   i1l1596 04C9  
                 i1l1588 04B9                   i1l1772 0738                   i1l1764 0724  
                 i1l1756 070D                   i1l1748 06F4                   i1l1692 0635  
                 i1l1684 0622                   i1l1676 0613                   i1l1940 0355  
                 i1l1924 02F3                   i1l1932 0324                   i1l1916 02D2  
                 i1l1908 02C3                   i1l1860 009A                   i1l1852 007C  
                 i1l1844 0065                   i1l1836 0056                   i1l1828 0041  
                 i1l1598 04D2                   i1l1790 0789                   i1l1782 0759  
                 i1l1774 0739                   i1l1766 0725                   i1l1758 0715  
                 i1l1694 063A                   i1l1686 062A                   i1l1678 0617  
                 i1l1950 0375                   i1l1942 0357                   i1l1934 0331  
                 i1l1926 0301                   i1l1918 02E6                   i1l1870 0128  
                 i1l1862 00A7                   i1l1854 0081                   i1l1846 006D  
                 i1l1838 005A                   u203_20 05B5                   i1l1784 075E  
                 i1l1792 078F                   i1l1776 073D                   i1l1768 072E  
                 i1l1696 0640                   i1l1688 062B                   u211_20 0617  
                 i1l1944 0365                   i1l1936 033C                   i1l1928 0305  
                 i1l1880 018A                   i1l1872 0144                   i1l1864 00C4  
                 i1l1848 006F                   i1l1960 0F60                   u203_21 05B4  
                 u211_21 0616                   i1l1794 079C                   i1l1786 076C  
                 i1l1778 0751                   i1l1698 0644                   i1l1946 0369  
                 i1l1938 034B                   i1l1890 021A                   i1l1882 01A7  
                 i1l1874 014D                   i1l1866 00E0                   i1l1858 008A  
                 i1l1970 0F8B                   i1l1962 0F70                   i1l1954 0F47  
                 i1l1796 07AA                   i1l1788 0770                   i1l1948 036A  
                 i1l1892 0247                   i1l1884 01C0                   i1l1876 015D  
                 i1l1868 010C                   i1l1980 0FBF                   i1l1972 0F92  
                 i1l1956 0F4C                   i1l1798 07B9                   i1l1894 026D  
                 i1l1886 01DD                   i1l1878 017A                   i1l1990 0FF2  
                 i1l1982 0FC3                   i1l1974 0F96                   i1l1966 0F79  
                 i1l1958 0F50                   u204_20 05C4                   u212_20 061D  
                 i1l1896 0295                   i1l1888 020A                   i1l1992 0FF6  
                 i1l1984 0FCD                   i1l1976 0FA4                   i1l1968 0F7E  
                 u212_21 061C                   i1l1898 029E                   i1l1994 0FF7  
                 i1l1986 0FD7                   i1l1978 0FB4                   i1l1988 0FED  
                 u204_25 05BF                   u220_25 06C4                   i1l1998 0E97  
                 u205_20 05D3                   u213_20 0622                   u205_21 05D2  
                 u213_21 0621                   u221_25 06CD                   u206_20 05DC  
                 u230_20 0738                   u222_20 06D8                   u214_20 0644  
                 u206_21 05DB                   u230_21 0737                   u222_21 06D7  
                 u214_21 0643                   u207_20 05E1                   u231_20 073D  
                 u215_20 064A                   u207_21 05E0                   u231_21 073C  
                 u215_21 0649                   u223_25 06DB                   u208_20 05EE  
                 u232_20 0751                   u224_20 06F4                   u216_20 064F  
                 u152_20 0C16                   u240_20 002E                   u160_20 0E63  
                 u208_21 05ED                   u232_21 0750                   u224_21 06F3  
                 u216_21 064E                   u152_21 0C15                   u240_21 002D  
                 u160_21 0E62                   u224_25 06F0                   u209_20 05F3  
                 u233_20 0758                   u225_20 070D                   u217_20 066A  
                 u241_20 0034                   u161_20 0E6A                   u209_21 05F2  
                 u233_21 0757                   u225_21 070C                   u217_21 0669  
                 u241_21 0033                   u161_21 0E69                   u153_25 0C1D  
                 u170_20 03C9                   u234_20 075E                   u226_20 0715  
                 u218_20 0688                   u154_20 0C2A                   u242_20 0039  
                 u170_21 03C8                   u234_21 075D                   u226_21 0714  
                 u218_21 0687                   u154_21 0C29                   u250_21 011A  
                 u242_21 0038                   u250_22 0121                   u250_23 0128  
                 u162_25 0E6F                   u171_20 03CE                   u235_20 0770  
                 u219_20 06C2                   u243_20 005A                   u163_20 0E83  
                 u155_20 0E09                   u171_21 03CD                   u235_21 076F  
                 u219_21 06C1                   u251_21 0136                   u243_21 0059  
                 u163_21 0E82                   u155_21 0E08                   u251_22 013D  
                 u251_23 0144                   u227_25 0719                   u180_20 0488  
                 u172_20 03E7                   u236_20 077F                   u228_20 0724  
                 u244_20 0060                   u164_20 0E88                   u156_20 0E2E  
                 u180_21 0487                   u172_21 03E6                   u228_21 0723  
                 u260_21 025F                   u244_21 005F                   u164_21 0E87  
                 u260_22 0266                   u260_23 026D                   u236_25 077A  
                 u252_25 0146                   u156_25 0E29                   u181_20 048C  
                 u173_20 03EB                   u165_20 038F                   u237_20 079C  
                 u261_20 027B                   u245_20 0065                   u157_20 0E46  
                 u181_21 048B                   u173_21 03EA                   u165_21 038E  
                 u237_21 079B                   u253_21 016C                   u245_21 0064  
                 u157_21 0E45                   u253_22 0173                   u253_23 017A  
                 u237_25 0798                   u229_25 0727                   u261_25 0276  
                 u190_20 0518                   u182_20 0491                   u174_20 0443  
                 u166_20 0395                   u238_20 07B9                   u270_20 02ED  
                 u246_20 007C                   u158_20 0E4D                   u190_21 0519  
                 u182_21 0490                   u174_21 0442                   u166_21 0394  
                 u238_21 07B8                   u270_21 02EC                   u262_21 0287  
                 u254_21 0199                   u246_21 007B                   u158_21 0E4C  
                 u190_22 051E                   u262_22 028E                   u254_22 01A0  
                 u190_23 051F                   u262_23 0295                   u254_23 01A7  
                 u174_25 043F                   u238_25 07B5                   u191_20 0536  
                 u175_20 044E                   u167_20 039A                   u239_20 07D0  
                 u271_20 02F3                   u247_20 0081                   u191_21 0535  
                 u183_21 04A3                   u175_21 044C                   u167_21 0399  
                 u239_21 07CF                   u271_21 02F2                   u247_21 0080  
                 u183_22 04AA                   u183_23 04B1                   u263_25 0297  
                 u255_25 01A9                   u159_25 0E4F                   u192_20 055B  
                 u184_20 04B5                   u176_20 044F                   u168_20 03B8  
                 u272_20 0305                   u192_21 055A                   u184_21 04B4  
                 u168_21 03B7                   u272_21 0304                   u256_21 01CF  
                 u248_21 00D2                   u256_22 01D6                   u248_22 00D9  
                 u256_23 01DD                   u248_23 00E0                   u264_25 02AE  
                 u280_25 0F83                   u193_20 0560                   u185_20 04B9  
                 u177_20 0463                   u169_20 03C3                   u273_20 0314  
                 u265_20 02B9                   u281_20 0F91                   u193_21 055F  
                 u185_21 04B8                   u177_21 0462                   u169_21 03C2  
                 u265_21 02B8                   u257_21 01FC                   u249_21 00EE  
                 u281_21 0F90                   u257_22 0203                   u249_22 00F5  
                 u257_23 020A                   u249_23 00FC                   u273_25 030F  
                 u186_20 04C8                   u178_20 0472                   u274_20 0331  
                 u290_20 0FF6                   u186_21 04C7                   u178_21 0471  
                 u274_21 0330                   u258_21 0229                   u290_21 0FF5  
                 u258_22 0230                   u258_23 0237                   u194_25 056B  
                 u274_25 032D                   u266_25 02BC                   u282_25 0FA5  
                 u195_20 0576                   u275_20 034B                   u267_20 02CD  
                 u259_20 0253                   u283_20 0FB3                   u291_20 0D6C  
                 u195_21 0575                   u275_21 034A                   u267_21 02CC  
                 u283_21 0FB2                   u291_21 0D6B                   u187_25 04CB  
                 u179_25 0475                   u275_25 0347                   u259_25 024E  
                 u196_20 057B                   u188_20 04ED                   u276_20 0369  
                 u268_20 02D2                   u292_20 07E9                   u196_21 057A  
                 u188_21 04EC                   u276_21 0368                   u268_21 02D1  
                 u292_21 07E8                   u188_23 04E9                   u284_25 0FB8  
                 u197_20 0585                   u269_20 02E6                   u285_20 0FC3  
                 u277_20 0F4C                   u293_20 07F4                   u197_21 0584  
                 u189_21 0504                   u269_21 02E5                   u285_21 0FC2  
                 u277_21 0F4B                   u293_21 07F3                   u189_22 0505  
                 u189_23 050A                   u189_24 050B                   u189_25 0510  
                 u189_26 0511                   u198_20 058B                   u286_20 0FC9  
                 u278_20 0F50                   u198_21 058A                   u286_21 0FC8  
                 u278_21 0F4F                   u199_20 0590                   u287_20 0FCD  
                 u279_20 0F70                   u295_20 0C8C                   u199_21 058F  
                 u287_21 0FCC                   u279_21 0F6F                   u295_21 0C8B  
                 u288_20 0FE2                   u296_20 0C97                   u296_21 0C96  
                 u288_25 0FDD                   u289_20 0FF2                   u297_20 0CAF  
                 u289_21 0FF1                   u297_21 0CAE                   u298_20 0CCA  
                 u298_21 0CC9                   _SSPBUF 0013         __end_of___xxtofl 1000  
              ??___fladd 005C                ??___fldiv 0028                ??___flmul 0042  
              ??___fltol 00A0                   saved_w 007E             ___xxtofl@arg 007A  
           ___xxtofl@exp 0079             ___xxtofl@val 0070  __end_of__initialization 0019  
             ___fltol@f1 0068           __pcstackCOMMON 0070            __end_of_setup 0D64  
                ??_setup 00B3               __pbssBANK1 00B4        __end_of__Umul8_16 0C2F  
             __pmaintext 0C2F               __pintentry 0004                  _CCP1CON 0017  
              ?___xxtofl 0070           interpole@value 006E                  ___fladd 037E  
                ___fldiv 0606                  ___flmul 001D                  ___fltol 0DF8  
                __ptext1 0CF0                  __ptext2 0C86                  __ptext3 07E3  
                __ptext4 0D64                  __ptext5 0E94                  __ptext6 0F46  
                __ptext7 0DF8                  __ptext8 001D                  __ptext9 0C08  
              _T2CONbits 0012               ??___xxtofl 0074           move_servo@CCPR 00AB  
      __end_of_interpole 0F46     end_of_initialization 0019        __end_of_send_data 07F8  
             _move_servo 0D64            send_data@data 0071                _PORTDbits 0008  
            ___fladd@grs 0067            ___xxtofl@sign 0078                _TRISCbits 0087  
            ___fldiv@grs 0034              ___fldiv@rem 002D              ___flmul@grs 0048  
            _CCP1CONbits 0017              _CCP2CONbits 001D         interpole@out_max 00A9  
       interpole@out_min 00A7      start_initialization 0013              __end_of_isr 0CF0  
            ?_move_servo 00AB                __Umul8_16 0C08                ___fladd@a 0058  
              ___fladd@b 0054                ___fldiv@a 0020                ___fldiv@b 0024  
              ___flmul@a 003E                ___flmul@b 003A                ___latbits 0002  
          __pcstackBANK0 0020            __pcstackBANK1 00A0                 ?___fladd 0054  
               ?___fldiv 0020                 ?___flmul 003A                 ?___fltol 0068  
             ?__Umul8_16 0070                _interpole 0E94        interrupt_function 0004  
               _PIE1bits 008C                _send_data 07E3                 _PIR1bits 000C  
             _ADCON0bits 001F               _ADCON1bits 009F          interpole@in_max 00A6  
        interpole@in_min 00A5               ?_interpole 00A5               ?_send_data 0070  
            ??__Umul8_16 0072                 ___xxtofl 0F46                 __ptext10 0606  
               __ptext11 037E             ??_move_servo 00AD          move_servo@servo 006F  
             _INTCONbits 000B       __end_of_move_servo 0DF8                 intlevel1 0000  
            ??_interpole 007E              ??_send_data 0071               _OSCCONbits 008F  
 __Umul8_16@multiplicand 0070           send_data@slave 0070            ___fladd@signs 0064  
           ___fladd@aexp 0065             ___fladd@bexp 0066     __Umul8_16@multiplier 0078  
             _SSPCONbits 0014        __Umul8_16@product 0074  
