

Microchip MPLAB XC8 Assembler V2.35 build 20211206165544 
                                                                                               Thu May 26 23:45:13 2022

Microchip MPLAB XC8 C Compiler v2.35 (Free license) build 20211206165544 Og1 
     1                           	processor	16F887
     2                           	pagewidth 120
     3                           	opt	flic
     4                           	psect	cinit,global,class=CODE,merge=1,delta=2
     5                           	psect	bssBANK1,global,class=BANK1,space=1,delta=1,noexec
     6                           	psect	cstackBANK1,global,class=BANK1,space=1,delta=1,noexec
     7                           	psect	cstackCOMMON,global,class=COMMON,space=1,delta=1,noexec
     8                           	psect	cstackBANK0,global,class=BANK0,space=1,delta=1,noexec
     9                           	psect	maintext,global,class=CODE,split=1,delta=2
    10                           	psect	text1,local,class=CODE,merge=1,delta=2
    11                           	psect	text2,local,class=CODE,merge=1,delta=2
    12                           	psect	intentry,global,class=CODE,delta=2
    13                           	psect	text3,local,class=CODE,merge=1,delta=2
    14                           	psect	text4,local,class=CODE,merge=1,delta=2
    15                           	psect	text5,local,class=CODE,merge=1,delta=2,group=1
    16                           	psect	text6,local,class=CODE,merge=1,delta=2,group=1
    17                           	psect	text7,local,class=CODE,merge=1,delta=2,group=1
    18                           	psect	text8,local,class=CODE,merge=1,delta=2,group=1
    19                           	psect	text9,local,class=CODE,merge=1,delta=2,group=1
    20                           	psect	text10,local,class=CODE,merge=1,delta=2,group=1
    21                           	psect	idloc,global,abs,ovrld,class=IDLOC,space=5,delta=2,noexec
    22                           	psect	config,global,abs,ovrld,class=CONFIG,space=4,delta=2,noexec
    23                           	dabs	1,0x7E,2
    24  0000                     
    25                           ; Version 2.40
    26                           ; Generated 17/11/2021 GMT
    27                           ; 
    28                           ; Copyright © 2021, Microchip Technology Inc. and its subsidiaries ("Microchip")
    29                           ; All rights reserved.
    30                           ; 
    31                           ; This software is developed by Microchip Technology Inc. and its subsidiaries ("Microch
      +                          ip").
    32                           ; 
    33                           ; Redistribution and use in source and binary forms, with or without modification, are
    34                           ; permitted provided that the following conditions are met:
    35                           ; 
    36                           ;     1. Redistributions of source code must retain the above copyright notice, this lis
      +                          t of
    37                           ;        conditions and the following disclaimer.
    38                           ; 
    39                           ;     2. Redistributions in binary form must reproduce the above copyright notice, this 
      +                          list
    40                           ;        of conditions and the following disclaimer in the documentation and/or other
    41                           ;        materials provided with the distribution. Publication is not required when
    42                           ;        this file is used in an embedded application.
    43                           ; 
    44                           ;     3. Microchip's name may not be used to endorse or promote products derived from th
      +                          is
    45                           ;        software without specific prior written permission.
    46                           ; 
    47                           ; THIS SOFTWARE IS PROVIDED BY MICROCHIP "AS IS" AND ANY EXPRESS OR IMPLIED WARRANTIES,
    48                           ; INCLUDING, BUT NOT LIMITED TO, THE IMPLIED WARRANTIES OF MERCHANTABILITY AND FITNESS F
      +                          OR
    49                           ; PURPOSE ARE DISCLAIMED.  IN NO EVENT SHALL MICROCHIP BE LIABLE FOR ANY DIRECT, INDIREC
      +                          T,
    50                           ; INCIDENTAL, SPECIAL, EXEMPLARY, OR CONSEQUENTIAL DAMAGES (INCLUDING BUT NOT LIMITED TO
    51                           ; PROCUREMENT OF SUBSTITUTE GOODS OR SERVICES; LOSS OF USE, DATA OR PROFITS; OR BUSINESS
    52                           ; INTERRUPTION) HOWSOEVER CAUSED AND ON ANY THEORY OF LIABILITY, WHETHER IN CONTRACT, ST
      +                          RICT
    53                           ; LIABILITY, OR TORT (INCLUDING NEGLIGENCE OR OTHERWISE) ARISING IN ANY WAY OUT OF THE U
      +                          SE OF
    54                           ; THIS SOFTWARE, EVEN IF ADVISED OF THE POSSIBILITY OF SUCH DAMAGE.
    55                           ; 
    56                           ; 
    57                           ; Code-generator required, PIC16F887 Definitions
    58                           ; 
    59                           ; SFR Addresses
    60  0000                     	;# 
    61  0001                     	;# 
    62  0002                     	;# 
    63  0003                     	;# 
    64  0004                     	;# 
    65  0005                     	;# 
    66  0006                     	;# 
    67  0007                     	;# 
    68  0008                     	;# 
    69  0009                     	;# 
    70  000A                     	;# 
    71  000B                     	;# 
    72  000C                     	;# 
    73  000D                     	;# 
    74  000E                     	;# 
    75  000E                     	;# 
    76  000F                     	;# 
    77  0010                     	;# 
    78  0011                     	;# 
    79  0012                     	;# 
    80  0013                     	;# 
    81  0014                     	;# 
    82  0015                     	;# 
    83  0015                     	;# 
    84  0016                     	;# 
    85  0017                     	;# 
    86  0018                     	;# 
    87  0019                     	;# 
    88  001A                     	;# 
    89  001B                     	;# 
    90  001B                     	;# 
    91  001C                     	;# 
    92  001D                     	;# 
    93  001E                     	;# 
    94  001F                     	;# 
    95  0081                     	;# 
    96  0085                     	;# 
    97  0086                     	;# 
    98  0087                     	;# 
    99  0088                     	;# 
   100  0089                     	;# 
   101  008C                     	;# 
   102  008D                     	;# 
   103  008E                     	;# 
   104  008F                     	;# 
   105  0090                     	;# 
   106  0091                     	;# 
   107  0092                     	;# 
   108  0093                     	;# 
   109  0093                     	;# 
   110  0093                     	;# 
   111  0094                     	;# 
   112  0095                     	;# 
   113  0096                     	;# 
   114  0097                     	;# 
   115  0098                     	;# 
   116  0099                     	;# 
   117  009A                     	;# 
   118  009B                     	;# 
   119  009C                     	;# 
   120  009D                     	;# 
   121  009E                     	;# 
   122  009F                     	;# 
   123  0105                     	;# 
   124  0107                     	;# 
   125  0108                     	;# 
   126  0109                     	;# 
   127  010C                     	;# 
   128  010C                     	;# 
   129  010D                     	;# 
   130  010E                     	;# 
   131  010F                     	;# 
   132  0185                     	;# 
   133  0187                     	;# 
   134  0188                     	;# 
   135  0189                     	;# 
   136  018C                     	;# 
   137  018D                     	;# 
   138  0000                     	;# 
   139  0001                     	;# 
   140  0002                     	;# 
   141  0003                     	;# 
   142  0004                     	;# 
   143  0005                     	;# 
   144  0006                     	;# 
   145  0007                     	;# 
   146  0008                     	;# 
   147  0009                     	;# 
   148  000A                     	;# 
   149  000B                     	;# 
   150  000C                     	;# 
   151  000D                     	;# 
   152  000E                     	;# 
   153  000E                     	;# 
   154  000F                     	;# 
   155  0010                     	;# 
   156  0011                     	;# 
   157  0012                     	;# 
   158  0013                     	;# 
   159  0014                     	;# 
   160  0015                     	;# 
   161  0015                     	;# 
   162  0016                     	;# 
   163  0017                     	;# 
   164  0018                     	;# 
   165  0019                     	;# 
   166  001A                     	;# 
   167  001B                     	;# 
   168  001B                     	;# 
   169  001C                     	;# 
   170  001D                     	;# 
   171  001E                     	;# 
   172  001F                     	;# 
   173  0081                     	;# 
   174  0085                     	;# 
   175  0086                     	;# 
   176  0087                     	;# 
   177  0088                     	;# 
   178  0089                     	;# 
   179  008C                     	;# 
   180  008D                     	;# 
   181  008E                     	;# 
   182  008F                     	;# 
   183  0090                     	;# 
   184  0091                     	;# 
   185  0092                     	;# 
   186  0093                     	;# 
   187  0093                     	;# 
   188  0093                     	;# 
   189  0094                     	;# 
   190  0095                     	;# 
   191  0096                     	;# 
   192  0097                     	;# 
   193  0098                     	;# 
   194  0099                     	;# 
   195  009A                     	;# 
   196  009B                     	;# 
   197  009C                     	;# 
   198  009D                     	;# 
   199  009E                     	;# 
   200  009F                     	;# 
   201  0105                     	;# 
   202  0107                     	;# 
   203  0108                     	;# 
   204  0109                     	;# 
   205  010C                     	;# 
   206  010C                     	;# 
   207  010D                     	;# 
   208  010E                     	;# 
   209  010F                     	;# 
   210  0185                     	;# 
   211  0187                     	;# 
   212  0188                     	;# 
   213  0189                     	;# 
   214  018C                     	;# 
   215  018D                     	;# 
   216  000B                     _INTCONbits	set	11
   217  0014                     _SSPCONbits	set	20
   218  0012                     _T2CONbits	set	18
   219  001B                     _CCPR2L	set	27
   220  0015                     _CCPR1L	set	21
   221  001D                     _CCP2CONbits	set	29
   222  0017                     _CCP1CONbits	set	23
   223  0017                     _CCP1CON	set	23
   224  0007                     _PORTC	set	7
   225  0008                     _PORTD	set	8
   226  0005                     _PORTA	set	5
   227  0013                     _SSPBUF	set	19
   228  0005                     _PORTAbits	set	5
   229  000C                     _PIR1bits	set	12
   230  008C                     _PIE1bits	set	140
   231  0094                     _SSPSTATbits	set	148
   232  0092                     _PR2	set	146
   233  0087                     _TRISCbits	set	135
   234  008F                     _OSCCONbits	set	143
   235  0087                     _TRISC	set	135
   236  0088                     _TRISD	set	136
   237  0085                     _TRISA	set	133
   238  0189                     _ANSELH	set	393
   239  0188                     _ANSEL	set	392
   240                           
   241                           	psect	cinit
   242  0013                     start_initialization:	
   243                           ; #config settings
   244                           
   245  0013                     __initialization:
   246                           
   247                           ; Clear objects allocated to BANK1
   248  0013  1683               	bsf	3,5	;RP0=1, select bank1
   249  0014  1303               	bcf	3,6	;RP1=0, select bank1
   250  0015  01B4               	clrf	__pbssBANK1& (0+127)
   251  0016  01B5               	clrf	(__pbssBANK1+1)& (0+127)
   252  0017  01B6               	clrf	(__pbssBANK1+2)& (0+127)
   253  0018  01B7               	clrf	(__pbssBANK1+3)& (0+127)
   254  0019                     end_of_initialization:	
   255                           ;End of C runtime variable initialization code
   256                           
   257  0019                     __end_of__initialization:
   258  0019  0183               	clrf	3
   259  001A  120A  118A  2FE3   	ljmp	_main	;jump to C main() function
   260                           
   261                           	psect	bssBANK1
   262  00B4                     __pbssBANK1:
   263  00B4                     _CCPR_2:
   264  00B4                     	ds	2
   265  00B6                     _CCPR_1:
   266  00B6                     	ds	2
   267                           
   268                           	psect	cstackBANK1
   269  00A0                     __pcstackBANK1:
   270  00A0                     ??___fltol:
   271                           
   272                           ; 1 bytes @ 0x0
   273  00A0                     	ds	5
   274  00A5                     ?_interpole:
   275  00A5                     interpole@in_min:	
   276                           ; 2 bytes @ 0x5
   277                           
   278                           
   279                           ; 1 bytes @ 0x5
   280  00A5                     	ds	1
   281  00A6                     interpole@in_max:
   282                           
   283                           ; 1 bytes @ 0x6
   284  00A6                     	ds	1
   285  00A7                     interpole@out_min:
   286                           
   287                           ; 2 bytes @ 0x7
   288  00A7                     	ds	2
   289  00A9                     interpole@out_max:
   290                           
   291                           ; 2 bytes @ 0x9
   292  00A9                     	ds	2
   293  00AB                     ?_move_servo:
   294  00AB                     move_servo@CCPR:	
   295                           ; 1 bytes @ 0xB
   296                           
   297                           
   298                           ; 2 bytes @ 0xB
   299  00AB                     	ds	2
   300  00AD                     ??_move_servo:
   301                           
   302                           ; 1 bytes @ 0xD
   303  00AD                     	ds	2
   304  00AF                     ??_isr:
   305                           
   306                           ; 1 bytes @ 0xF
   307  00AF                     	ds	5
   308  00B4                     ??_setup:
   309  00B4                     ??_main:	
   310                           ; 1 bytes @ 0x14
   311                           
   312                           
   313                           	psect	cstackCOMMON
   314  0070                     __pcstackCOMMON:	
   315                           ; 1 bytes @ 0x14
   316                           
   317  0070                     ?_setup:
   318  0070                     ?_isr:	
   319                           ; 1 bytes @ 0x0
   320                           
   321  0070                     ?_main:	
   322                           ; 1 bytes @ 0x0
   323                           
   324  0070                     ?__Umul8_16:	
   325                           ; 1 bytes @ 0x0
   326                           
   327  0070                     ?___xxtofl:	
   328                           ; 2 bytes @ 0x0
   329                           
   330  0070                     __Umul8_16@multiplicand:	
   331                           ; 4 bytes @ 0x0
   332                           
   333  0070                     ___xxtofl@val:	
   334                           ; 1 bytes @ 0x0
   335                           
   336                           
   337                           ; 4 bytes @ 0x0
   338  0070                     	ds	2
   339  0072                     ??__Umul8_16:
   340                           
   341                           ; 1 bytes @ 0x2
   342  0072                     	ds	2
   343  0074                     ??___xxtofl:
   344  0074                     __Umul8_16@product:	
   345                           ; 1 bytes @ 0x4
   346                           
   347                           
   348                           ; 2 bytes @ 0x4
   349  0074                     	ds	2
   350  0076                     __Umul8_16@word_mpld:
   351                           
   352                           ; 2 bytes @ 0x6
   353  0076                     	ds	2
   354  0078                     __Umul8_16@multiplier:
   355  0078                     ___xxtofl@sign:	
   356                           ; 1 bytes @ 0x8
   357                           
   358                           
   359                           ; 1 bytes @ 0x8
   360  0078                     	ds	1
   361  0079                     ___xxtofl@exp:
   362                           
   363                           ; 1 bytes @ 0x9
   364  0079                     	ds	1
   365  007A                     ___xxtofl@arg:
   366                           
   367                           ; 4 bytes @ 0xA
   368  007A                     	ds	4
   369  007E                     ??_interpole:
   370                           
   371                           	psect	cstackBANK0
   372  0020                     __pcstackBANK0:	
   373                           ; 1 bytes @ 0xE
   374                           
   375  0020                     ?___fldiv:
   376  0020                     ___fldiv@a:	
   377                           ; 4 bytes @ 0x0
   378                           
   379                           
   380                           ; 4 bytes @ 0x0
   381  0020                     	ds	4
   382  0024                     ___fldiv@b:
   383                           
   384                           ; 4 bytes @ 0x4
   385  0024                     	ds	4
   386  0028                     ??___fldiv:
   387                           
   388                           ; 1 bytes @ 0x8
   389  0028                     	ds	5
   390  002D                     ___fldiv@rem:
   391                           
   392                           ; 4 bytes @ 0xD
   393  002D                     	ds	4
   394  0031                     ___fldiv@sign:
   395                           
   396                           ; 1 bytes @ 0x11
   397  0031                     	ds	1
   398  0032                     ___fldiv@new_exp:
   399                           
   400                           ; 2 bytes @ 0x12
   401  0032                     	ds	2
   402  0034                     ___fldiv@grs:
   403                           
   404                           ; 4 bytes @ 0x14
   405  0034                     	ds	4
   406  0038                     ___fldiv@bexp:
   407                           
   408                           ; 1 bytes @ 0x18
   409  0038                     	ds	1
   410  0039                     ___fldiv@aexp:
   411                           
   412                           ; 1 bytes @ 0x19
   413  0039                     	ds	1
   414  003A                     ?___flmul:
   415  003A                     ___flmul@b:	
   416                           ; 4 bytes @ 0x1A
   417                           
   418                           
   419                           ; 4 bytes @ 0x1A
   420  003A                     	ds	4
   421  003E                     ___flmul@a:
   422                           
   423                           ; 4 bytes @ 0x1E
   424  003E                     	ds	4
   425  0042                     ??___flmul:
   426                           
   427                           ; 1 bytes @ 0x22
   428  0042                     	ds	5
   429  0047                     ___flmul@sign:
   430                           
   431                           ; 1 bytes @ 0x27
   432  0047                     	ds	1
   433  0048                     ___flmul@grs:
   434                           
   435                           ; 4 bytes @ 0x28
   436  0048                     	ds	4
   437  004C                     ___flmul@aexp:
   438                           
   439                           ; 1 bytes @ 0x2C
   440  004C                     	ds	1
   441  004D                     ___flmul@bexp:
   442                           
   443                           ; 1 bytes @ 0x2D
   444  004D                     	ds	1
   445  004E                     ___flmul@prod:
   446                           
   447                           ; 4 bytes @ 0x2E
   448  004E                     	ds	4
   449  0052                     ___flmul@temp:
   450                           
   451                           ; 2 bytes @ 0x32
   452  0052                     	ds	2
   453  0054                     ?___fladd:
   454  0054                     ___fladd@b:	
   455                           ; 4 bytes @ 0x34
   456                           
   457                           
   458                           ; 4 bytes @ 0x34
   459  0054                     	ds	4
   460  0058                     ___fladd@a:
   461                           
   462                           ; 4 bytes @ 0x38
   463  0058                     	ds	4
   464  005C                     ??___fladd:
   465                           
   466                           ; 1 bytes @ 0x3C
   467  005C                     	ds	8
   468  0064                     ___fladd@signs:
   469                           
   470                           ; 1 bytes @ 0x44
   471  0064                     	ds	1
   472  0065                     ___fladd@aexp:
   473                           
   474                           ; 1 bytes @ 0x45
   475  0065                     	ds	1
   476  0066                     ___fladd@bexp:
   477                           
   478                           ; 1 bytes @ 0x46
   479  0066                     	ds	1
   480  0067                     ___fladd@grs:
   481                           
   482                           ; 1 bytes @ 0x47
   483  0067                     	ds	1
   484  0068                     ?___fltol:
   485  0068                     ___fltol@f1:	
   486                           ; 4 bytes @ 0x48
   487                           
   488                           
   489                           ; 4 bytes @ 0x48
   490  0068                     	ds	4
   491  006C                     ___fltol@sign1:
   492                           
   493                           ; 1 bytes @ 0x4C
   494  006C                     	ds	1
   495  006D                     ___fltol@exp1:
   496                           
   497                           ; 1 bytes @ 0x4D
   498  006D                     	ds	1
   499  006E                     interpole@value:
   500                           
   501                           ; 1 bytes @ 0x4E
   502  006E                     	ds	1
   503  006F                     move_servo@servo:
   504                           
   505                           ; 1 bytes @ 0x4F
   506  006F                     	ds	1
   507                           
   508                           	psect	maintext
   509  07E3                     __pmaintext:	
   510 ;;
   511 ;;Main: autosize = 0, tempsize = 0, incstack = 0, save=0
   512 ;;
   513 ;; *************** function _main *****************
   514 ;; Defined at:
   515 ;;		line 83 in file "main_slave1.c"
   516 ;; Parameters:    Size  Location     Type
   517 ;;		None
   518 ;; Auto vars:     Size  Location     Type
   519 ;;		None
   520 ;; Return value:  Size  Location     Type
   521 ;;                  1    wreg      void 
   522 ;; Registers used:
   523 ;;		wreg, status,2, status,0, pclath, cstack
   524 ;; Tracked objects:
   525 ;;		On entry : B00/0
   526 ;;		On exit  : 0/0
   527 ;;		Unchanged: 0/0
   528 ;; Data sizes:     COMMON   BANK0   BANK1   BANK3   BANK2
   529 ;;      Params:         0       0       0       0       0
   530 ;;      Locals:         0       0       0       0       0
   531 ;;      Temps:          0       0       0       0       0
   532 ;;      Totals:         0       0       0       0       0
   533 ;;Total ram usage:        0 bytes
   534 ;; Hardware stack levels required when called: 6
   535 ;; This function calls:
   536 ;;		_setup
   537 ;; This function is called by:
   538 ;;		Startup code after reset
   539 ;; This function uses a non-reentrant model
   540 ;;
   541                           
   542  07E3                     _main:	
   543                           ;psect for function _main
   544                           
   545  07E3                     l2009:	
   546                           ;incstack = 0
   547                           ; Regs used in _main: [wreg+status,2+status,0+pclath+cstack]
   548                           
   549                           
   550                           ;main_slave1.c: 84:     setup();
   551  07E3  120A  158A  250C  120A  118A  	fcall	_setup
   552  07E8                     l70:	
   553                           ;main_slave1.c: 85:     while(1){
   554                           
   555  07E8                     l71:	
   556                           ;main_slave1.c: 87:     }
   557                           
   558  07E8  2FE8               	goto	l70
   559  07E9  120A  118A  2810   	ljmp	start
   560  07EC                     __end_of_main:
   561                           
   562                           	psect	text1
   563  0D0C                     __ptext1:	
   564 ;; *************** function _setup *****************
   565 ;; Defined at:
   566 ;;		line 94 in file "main_slave1.c"
   567 ;; Parameters:    Size  Location     Type
   568 ;;		None
   569 ;; Auto vars:     Size  Location     Type
   570 ;;		None
   571 ;; Return value:  Size  Location     Type
   572 ;;                  1    wreg      void 
   573 ;; Registers used:
   574 ;;		wreg, status,2, status,0
   575 ;; Tracked objects:
   576 ;;		On entry : 0/0
   577 ;;		On exit  : 0/0
   578 ;;		Unchanged: 0/0
   579 ;; Data sizes:     COMMON   BANK0   BANK1   BANK3   BANK2
   580 ;;      Params:         0       0       0       0       0
   581 ;;      Locals:         0       0       0       0       0
   582 ;;      Temps:          0       0       0       0       0
   583 ;;      Totals:         0       0       0       0       0
   584 ;;Total ram usage:        0 bytes
   585 ;; Hardware stack levels used: 1
   586 ;; Hardware stack levels required when called: 5
   587 ;; This function calls:
   588 ;;		Nothing
   589 ;; This function is called by:
   590 ;;		_main
   591 ;; This function uses a non-reentrant model
   592 ;;
   593                           
   594  0D0C                     _setup:	
   595                           ;psect for function _setup
   596                           
   597  0D0C                     l1937:	
   598                           ;incstack = 0
   599                           ; Regs used in _setup: [wreg+status,2+status,0]
   600                           
   601                           
   602                           ;main_slave1.c: 97:     ANSEL = 0;
   603  0D0C  1683               	bsf	3,5	;RP0=1, select bank3
   604  0D0D  1703               	bsf	3,6	;RP1=1, select bank3
   605  0D0E  0188               	clrf	8	;volatile
   606                           
   607                           ;main_slave1.c: 98:     ANSELH = 0;
   608  0D0F  0189               	clrf	9	;volatile
   609  0D10                     l1939:
   610                           
   611                           ;main_slave1.c: 100:     TRISA = 0b00100001;
   612  0D10  3021               	movlw	33
   613  0D11  1683               	bsf	3,5	;RP0=1, select bank1
   614  0D12  1303               	bcf	3,6	;RP1=0, select bank1
   615  0D13  0085               	movwf	5	;volatile
   616  0D14                     l1941:
   617                           
   618                           ;main_slave1.c: 101:     PORTA = 0;
   619  0D14  1283               	bcf	3,5	;RP0=0, select bank0
   620  0D15  1303               	bcf	3,6	;RP1=0, select bank0
   621  0D16  0185               	clrf	5	;volatile
   622  0D17                     l1943:
   623                           
   624                           ;main_slave1.c: 103:     TRISD = 0;
   625  0D17  1683               	bsf	3,5	;RP0=1, select bank1
   626  0D18  1303               	bcf	3,6	;RP1=0, select bank1
   627  0D19  0188               	clrf	8	;volatile
   628  0D1A                     l1945:
   629                           
   630                           ;main_slave1.c: 104:     PORTD = 0;
   631  0D1A  1283               	bcf	3,5	;RP0=0, select bank0
   632  0D1B  1303               	bcf	3,6	;RP1=0, select bank0
   633  0D1C  0188               	clrf	8	;volatile
   634                           
   635                           ;main_slave1.c: 107:     TRISC = 0b00011000;
   636  0D1D  3018               	movlw	24
   637  0D1E  1683               	bsf	3,5	;RP0=1, select bank1
   638  0D1F  1303               	bcf	3,6	;RP1=0, select bank1
   639  0D20  0087               	movwf	7	;volatile
   640  0D21                     l1947:
   641                           
   642                           ;main_slave1.c: 108:     PORTC = 0;
   643  0D21  1283               	bcf	3,5	;RP0=0, select bank0
   644  0D22  1303               	bcf	3,6	;RP1=0, select bank0
   645  0D23  0187               	clrf	7	;volatile
   646  0D24                     l1949:
   647                           
   648                           ;main_slave1.c: 111:     OSCCONbits.IRCF = 0b011;
   649  0D24  1683               	bsf	3,5	;RP0=1, select bank1
   650  0D25  1303               	bcf	3,6	;RP1=0, select bank1
   651  0D26  080F               	movf	15,w	;volatile
   652  0D27  398F               	andlw	-113
   653  0D28  3830               	iorlw	48
   654  0D29  008F               	movwf	15	;volatile
   655  0D2A                     l1951:
   656                           
   657                           ;main_slave1.c: 112:     OSCCONbits.SCS = 1;
   658  0D2A  140F               	bsf	15,0	;volatile
   659  0D2B                     l1953:
   660                           
   661                           ;main_slave1.c: 115:     TRISCbits.TRISC2 = 1;
   662  0D2B  1507               	bsf	7,2	;volatile
   663  0D2C                     l1955:
   664                           
   665                           ;main_slave1.c: 116:     TRISCbits.TRISC1 = 1;
   666  0D2C  1487               	bsf	7,1	;volatile
   667  0D2D                     l1957:
   668                           
   669                           ;main_slave1.c: 117:     PR2 = 156;
   670  0D2D  309C               	movlw	156
   671  0D2E  0092               	movwf	18	;volatile
   672  0D2F                     l1959:
   673                           
   674                           ;main_slave1.c: 120:     CCP1CON = 0;
   675  0D2F  1283               	bcf	3,5	;RP0=0, select bank0
   676  0D30  1303               	bcf	3,6	;RP1=0, select bank0
   677  0D31  0197               	clrf	23	;volatile
   678                           
   679                           ;main_slave1.c: 121:     CCP1CONbits.P1M = 0;
   680  0D32  303F               	movlw	-193
   681  0D33  0597               	andwf	23,f	;volatile
   682                           
   683                           ;main_slave1.c: 123:     CCP1CONbits.CCP1M = 0b1100;
   684  0D34  0817               	movf	23,w	;volatile
   685  0D35  39F0               	andlw	-16
   686  0D36  380C               	iorlw	12
   687  0D37  0097               	movwf	23	;volatile
   688                           
   689                           ;main_slave1.c: 124:     CCP2CONbits.CCP2M = 0b1100;
   690  0D38  081D               	movf	29,w	;volatile
   691  0D39  39F0               	andlw	-16
   692  0D3A  380C               	iorlw	12
   693  0D3B  009D               	movwf	29	;volatile
   694  0D3C                     l1961:
   695                           
   696                           ;main_slave1.c: 126:     CCPR1L = 155>>2;
   697  0D3C  3026               	movlw	38
   698  0D3D  0095               	movwf	21	;volatile
   699  0D3E                     l1963:
   700                           
   701                           ;main_slave1.c: 127:     CCP1CONbits.DC1B = 155 & 0b11;
   702  0D3E  3030               	movlw	48
   703  0D3F  0497               	iorwf	23,f	;volatile
   704                           
   705                           ;main_slave1.c: 129:     CCPR2L = 155>>2;
   706  0D40  3026               	movlw	38
   707  0D41  009B               	movwf	27	;volatile
   708  0D42                     l1965:
   709                           
   710                           ;main_slave1.c: 130:     CCP2CONbits.DC2B0 = 155 & 0b01;
   711  0D42  161D               	bsf	29,4	;volatile
   712  0D43                     l1967:
   713                           
   714                           ;main_slave1.c: 131:     CCP2CONbits.DC2B1 = 155 & 0b10;
   715  0D43  129D               	bcf	29,5	;volatile
   716  0D44                     l1969:
   717                           
   718                           ;main_slave1.c: 134:     PIR1bits.TMR2IF = 0;
   719  0D44  108C               	bcf	12,1	;volatile
   720  0D45                     l1971:
   721                           
   722                           ;main_slave1.c: 135:     T2CONbits.T2CKPS = 0b11;
   723  0D45  3003               	movlw	3
   724  0D46  0492               	iorwf	18,f	;volatile
   725  0D47                     l1973:
   726                           
   727                           ;main_slave1.c: 136:     T2CONbits.TMR2ON = 1;
   728  0D47  1512               	bsf	18,2	;volatile
   729  0D48                     l76:	
   730                           ;main_slave1.c: 137:     while(!PIR1bits.TMR2IF);
   731                           
   732  0D48  1C8C               	btfss	12,1	;volatile
   733  0D49  2D4B               	goto	u2851
   734  0D4A  2D4C               	goto	u2850
   735  0D4B                     u2851:
   736  0D4B  2D48               	goto	l76
   737  0D4C                     u2850:
   738  0D4C                     l78:
   739                           
   740                           ;main_slave1.c: 138:     PIR1bits.TMR2IF = 0;
   741  0D4C  108C               	bcf	12,1	;volatile
   742                           
   743                           ;main_slave1.c: 140:     TRISCbits.TRISC2 = 0;
   744  0D4D  1683               	bsf	3,5	;RP0=1, select bank1
   745  0D4E  1303               	bcf	3,6	;RP1=0, select bank1
   746  0D4F  1107               	bcf	7,2	;volatile
   747                           
   748                           ;main_slave1.c: 141:     TRISCbits.TRISC1 = 0;
   749  0D50  1087               	bcf	7,1	;volatile
   750  0D51                     l1975:
   751                           
   752                           ;main_slave1.c: 146:     SSPCONbits.SSPM = 0b0100;
   753  0D51  1283               	bcf	3,5	;RP0=0, select bank0
   754  0D52  1303               	bcf	3,6	;RP1=0, select bank0
   755  0D53  0814               	movf	20,w	;volatile
   756  0D54  39F0               	andlw	-16
   757  0D55  3804               	iorlw	4
   758  0D56  0094               	movwf	20	;volatile
   759  0D57                     l1977:
   760                           
   761                           ;main_slave1.c: 147:     SSPCONbits.CKP = 0;
   762  0D57  1214               	bcf	20,4	;volatile
   763  0D58                     l1979:
   764                           
   765                           ;main_slave1.c: 148:     SSPCONbits.SSPEN = 1;
   766  0D58  1694               	bsf	20,5	;volatile
   767  0D59                     l1981:
   768                           
   769                           ;main_slave1.c: 150:     SSPSTATbits.CKE = 1;
   770  0D59  1683               	bsf	3,5	;RP0=1, select bank1
   771  0D5A  1303               	bcf	3,6	;RP1=0, select bank1
   772  0D5B  1714               	bsf	20,6	;volatile
   773  0D5C                     l1983:
   774                           
   775                           ;main_slave1.c: 151:     SSPSTATbits.SMP = 0;
   776  0D5C  1394               	bcf	20,7	;volatile
   777  0D5D                     l1985:
   778                           
   779                           ;main_slave1.c: 154:     INTCONbits.PEIE = 1;
   780  0D5D  170B               	bsf	11,6	;volatile
   781  0D5E                     l1987:
   782                           
   783                           ;main_slave1.c: 155:     INTCONbits.GIE = 1;
   784  0D5E  178B               	bsf	11,7	;volatile
   785  0D5F                     l1989:
   786                           
   787                           ;main_slave1.c: 157:     PIE1bits.SSPIE = 1;
   788  0D5F  158C               	bsf	12,3	;volatile
   789  0D60                     l1991:
   790                           
   791                           ;main_slave1.c: 158:     PIR1bits.SSPIF = 0;
   792  0D60  1283               	bcf	3,5	;RP0=0, select bank0
   793  0D61  1303               	bcf	3,6	;RP1=0, select bank0
   794  0D62  118C               	bcf	12,3	;volatile
   795  0D63                     l79:
   796  0D63  0008               	return
   797  0D64                     __end_of_setup:
   798                           
   799                           	psect	text2
   800  0CC9                     __ptext2:	
   801 ;; *************** function _isr *****************
   802 ;; Defined at:
   803 ;;		line 64 in file "main_slave1.c"
   804 ;; Parameters:    Size  Location     Type
   805 ;;		None
   806 ;; Auto vars:     Size  Location     Type
   807 ;;		None
   808 ;; Return value:  Size  Location     Type
   809 ;;                  1    wreg      void 
   810 ;; Registers used:
   811 ;;		wreg, status,2, status,0, btemp+1, pclath, cstack
   812 ;; Tracked objects:
   813 ;;		On entry : 0/0
   814 ;;		On exit  : 0/0
   815 ;;		Unchanged: 0/0
   816 ;; Data sizes:     COMMON   BANK0   BANK1   BANK3   BANK2
   817 ;;      Params:         0       0       0       0       0
   818 ;;      Locals:         0       0       0       0       0
   819 ;;      Temps:          0       0       5       0       0
   820 ;;      Totals:         0       0       5       0       0
   821 ;;Total ram usage:        5 bytes
   822 ;; Hardware stack levels used: 1
   823 ;; Hardware stack levels required when called: 4
   824 ;; This function calls:
   825 ;;		_move_servo
   826 ;; This function is called by:
   827 ;;		Interrupt level 1
   828 ;; This function uses a non-reentrant model
   829 ;;
   830                           
   831  0CC9                     _isr:	
   832                           ;psect for function _isr
   833                           
   834  0CC9                     i1l1993:
   835                           
   836                           ;main_slave1.c: 65:     if (PIR1bits.SSPIF){
   837  0CC9  1283               	bcf	3,5	;RP0=0, select bank0
   838  0CCA  1303               	bcf	3,6	;RP1=0, select bank0
   839  0CCB  1D8C               	btfss	12,3	;volatile
   840  0CCC  2CCE               	goto	u286_21
   841  0CCD  2CCF               	goto	u286_20
   842  0CCE                     u286_21:
   843  0CCE  2D01               	goto	i1l65
   844  0CCF                     u286_20:
   845  0CCF                     i1l1995:
   846                           
   847                           ;main_slave1.c: 66:         if (PORTAbits.RA0 == 0){
   848  0CCF  1805               	btfsc	5,0	;volatile
   849  0CD0  2CD2               	goto	u287_21
   850  0CD1  2CD3               	goto	u287_20
   851  0CD2                     u287_21:
   852  0CD2  2CE7               	goto	i1l62
   853  0CD3                     u287_20:
   854  0CD3                     i1l1997:
   855                           
   856                           ;main_slave1.c: 67:             CCPR_1 = SSPBUF;
   857  0CD3  0813               	movf	19,w	;volatile
   858  0CD4  1683               	bsf	3,5	;RP0=1, select bank1
   859  0CD5  1303               	bcf	3,6	;RP1=0, select bank1
   860  0CD6  00AF               	movwf	??_isr^(0+128)
   861  0CD7  01B0               	clrf	(??_isr^(0+128)+1)
   862  0CD8  082F               	movf	??_isr^(0+128),w
   863  0CD9  00B6               	movwf	_CCPR_1^(0+128)
   864  0CDA  0830               	movf	(??_isr+1)^(0+128),w
   865  0CDB  00B7               	movwf	(_CCPR_1+1)^(0+128)
   866  0CDC                     i1l1999:
   867                           
   868                           ;main_slave1.c: 68:             move_servo(1,CCPR_1);
   869  0CDC  0837               	movf	(_CCPR_1+1)^(0+128),w
   870  0CDD  00AC               	movwf	(move_servo@CCPR+1)^(0+128)
   871  0CDE  0836               	movf	_CCPR_1^(0+128),w
   872  0CDF  00AB               	movwf	move_servo@CCPR^(0+128)
   873  0CE0  3001               	movlw	1
   874  0CE1  120A  158A  2564  120A  158A  	fcall	_move_servo
   875                           
   876                           ;main_slave1.c: 69:         }
   877  0CE6  2CFE               	goto	i1l2005
   878  0CE7                     i1l62:	
   879                           ;main_slave1.c: 70:         else if (PORTAbits.RA0 == 1){
   880                           
   881  0CE7  1C05               	btfss	5,0	;volatile
   882  0CE8  2CEA               	goto	u288_21
   883  0CE9  2CEB               	goto	u288_20
   884  0CEA                     u288_21:
   885  0CEA  2CFE               	goto	i1l2005
   886  0CEB                     u288_20:
   887  0CEB                     i1l2001:
   888                           
   889                           ;main_slave1.c: 71:             CCPR_2 = SSPBUF;
   890  0CEB  0813               	movf	19,w	;volatile
   891  0CEC  1683               	bsf	3,5	;RP0=1, select bank1
   892  0CED  1303               	bcf	3,6	;RP1=0, select bank1
   893  0CEE  00AF               	movwf	??_isr^(0+128)
   894  0CEF  01B0               	clrf	(??_isr^(0+128)+1)
   895  0CF0  082F               	movf	??_isr^(0+128),w
   896  0CF1  00B4               	movwf	_CCPR_2^(0+128)
   897  0CF2  0830               	movf	(??_isr+1)^(0+128),w
   898  0CF3  00B5               	movwf	(_CCPR_2+1)^(0+128)
   899  0CF4                     i1l2003:
   900                           
   901                           ;main_slave1.c: 72:             move_servo(2,CCPR_2);
   902  0CF4  0835               	movf	(_CCPR_2+1)^(0+128),w
   903  0CF5  00AC               	movwf	(move_servo@CCPR+1)^(0+128)
   904  0CF6  0834               	movf	_CCPR_2^(0+128),w
   905  0CF7  00AB               	movwf	move_servo@CCPR^(0+128)
   906  0CF8  3002               	movlw	2
   907  0CF9  120A  158A  2564  120A  158A  	fcall	_move_servo
   908  0CFE                     i1l2005:
   909                           
   910                           ;main_slave1.c: 76:         PIR1bits.SSPIF = 0;
   911  0CFE  1283               	bcf	3,5	;RP0=0, select bank0
   912  0CFF  1303               	bcf	3,6	;RP1=0, select bank0
   913  0D00  118C               	bcf	12,3	;volatile
   914  0D01                     i1l65:
   915  0D01  1683               	bsf	3,5	;RP0=1, select bank1
   916  0D02  1303               	bcf	3,6	;RP1=0, select bank1
   917  0D03  0833               	movf	(??_isr+4)^(0+128),w
   918  0D04  00FF               	movwf	btemp+1
   919  0D05  0832               	movf	(??_isr+3)^(0+128),w
   920  0D06  008A               	movwf	10
   921  0D07  0E31               	swapf	(??_isr+2)^(0+128),w
   922  0D08  0083               	movwf	3
   923  0D09  0EFE               	swapf	btemp,f
   924  0D0A  0E7E               	swapf	btemp,w
   925  0D0B  0009               	retfie
   926  0D0C                     __end_of_isr:
   927                           
   928                           	psect	intentry
   929  0004                     __pintentry:	
   930                           ;incstack = 0
   931                           ; Regs used in _isr: [wreg+status,2+status,0+btemp+1+pclath+cstack]
   932                           
   933  0004                     interrupt_function:
   934  007E                     saved_w	set	btemp
   935  0004  00FE               	movwf	btemp
   936  0005  0E03               	swapf	3,w
   937  0006  1683               	bsf	3,5	;RP0=1, select bank1
   938  0007  1303               	bcf	3,6	;RP1=0, select bank1
   939  0008  00B1               	movwf	(??_isr+2)^(0+128)
   940  0009  080A               	movf	10,w
   941  000A  00B2               	movwf	(??_isr+3)^(0+128)
   942  000B  087F               	movf	btemp+1,w
   943  000C  00B3               	movwf	(??_isr+4)^(0+128)
   944  000D  120A  158A  2CC9   	ljmp	_isr
   945                           
   946                           	psect	text3
   947  0D64                     __ptext3:	
   948 ;; *************** function _move_servo *****************
   949 ;; Defined at:
   950 ;;		line 170 in file "main_slave1.c"
   951 ;; Parameters:    Size  Location     Type
   952 ;;  servo           1    wreg     unsigned char 
   953 ;;  CCPR            2   11[BANK1 ] unsigned short 
   954 ;; Auto vars:     Size  Location     Type
   955 ;;  servo           1   79[BANK0 ] unsigned char 
   956 ;; Return value:  Size  Location     Type
   957 ;;                  1    wreg      void 
   958 ;; Registers used:
   959 ;;		wreg, status,2, status,0, btemp+1, pclath, cstack
   960 ;; Tracked objects:
   961 ;;		On entry : 0/0
   962 ;;		On exit  : 0/0
   963 ;;		Unchanged: 0/0
   964 ;; Data sizes:     COMMON   BANK0   BANK1   BANK3   BANK2
   965 ;;      Params:         0       0       2       0       0
   966 ;;      Locals:         0       1       0       0       0
   967 ;;      Temps:          0       0       2       0       0
   968 ;;      Totals:         0       1       4       0       0
   969 ;;Total ram usage:        5 bytes
   970 ;; Hardware stack levels used: 1
   971 ;; Hardware stack levels required when called: 3
   972 ;; This function calls:
   973 ;;		_interpole
   974 ;; This function is called by:
   975 ;;		_isr
   976 ;; This function uses a non-reentrant model
   977 ;;
   978                           
   979  0D64                     _move_servo:	
   980                           ;psect for function _move_servo
   981                           
   982                           
   983                           ;incstack = 0
   984                           ; Regs used in _move_servo: [wreg+status,2+status,0+btemp+1+pclath+cstack]
   985                           ;move_servo@servo stored from wreg
   986  0D64  1283               	bcf	3,5	;RP0=0, select bank0
   987  0D65  1303               	bcf	3,6	;RP1=0, select bank0
   988  0D66  00EF               	movwf	move_servo@servo
   989  0D67                     i1l1919:
   990                           
   991                           ;main_slave1.c: 172:     if (servo == 1){
   992  0D67  036F               	decf	move_servo@servo,w
   993  0D68  1D03               	btfss	3,2
   994  0D69  2D6B               	goto	u284_21
   995  0D6A  2D6C               	goto	u284_20
   996  0D6B                     u284_21:
   997  0D6B  2DA9               	goto	i1l1927
   998  0D6C                     u284_20:
   999  0D6C                     i1l1921:
  1000                           
  1001                           ;main_slave1.c: 173:         CCPR = interpole(SSPBUF, 0, 255, 20, 80);
  1002  0D6C  1683               	bsf	3,5	;RP0=1, select bank1
  1003  0D6D  1303               	bcf	3,6	;RP1=0, select bank1
  1004  0D6E  01A5               	clrf	interpole@in_min^(0+128)
  1005  0D6F  30FF               	movlw	255
  1006  0D70  00AD               	movwf	??_move_servo^(0+128)
  1007  0D71  082D               	movf	??_move_servo^(0+128),w
  1008  0D72  00A6               	movwf	interpole@in_max^(0+128)
  1009  0D73  3014               	movlw	20
  1010  0D74  00A7               	movwf	interpole@out_min^(0+128)
  1011  0D75  3000               	movlw	0
  1012  0D76  00A8               	movwf	(interpole@out_min^(0+128)+1)
  1013  0D77  3050               	movlw	80
  1014  0D78  00A9               	movwf	interpole@out_max^(0+128)
  1015  0D79  3000               	movlw	0
  1016  0D7A  00AA               	movwf	(interpole@out_max^(0+128)+1)
  1017  0D7B  1283               	bcf	3,5	;RP0=0, select bank0
  1018  0D7C  1303               	bcf	3,6	;RP1=0, select bank0
  1019  0D7D  0813               	movf	19,w	;volatile
  1020  0D7E  120A  158A  2694  120A  158A  	fcall	_interpole
  1021  0D83  1683               	bsf	3,5	;RP0=1, select bank1
  1022  0D84  1303               	bcf	3,6	;RP1=0, select bank1
  1023  0D85  0826               	movf	(?_interpole+1)^(0+128),w
  1024  0D86  00AC               	movwf	(move_servo@CCPR+1)^(0+128)
  1025  0D87  0825               	movf	?_interpole^(0+128),w
  1026  0D88  00AB               	movwf	move_servo@CCPR^(0+128)
  1027  0D89                     i1l1923:
  1028                           
  1029                           ;main_slave1.c: 174:         CCPR1L = (uint8_t)(CCPR>>2);
  1030  0D89  082C               	movf	(move_servo@CCPR+1)^(0+128),w
  1031  0D8A  00AE               	movwf	(??_move_servo^(0+128)+1)
  1032  0D8B  082B               	movf	move_servo@CCPR^(0+128),w
  1033  0D8C  00AD               	movwf	??_move_servo^(0+128)
  1034  0D8D  1003               	clrc
  1035  0D8E  0CAE               	rrf	(??_move_servo^(0+128)+1),f
  1036  0D8F  0CAD               	rrf	??_move_servo^(0+128),f
  1037  0D90  1003               	clrc
  1038  0D91  0CAE               	rrf	(??_move_servo^(0+128)+1),f
  1039  0D92  0CAD               	rrf	??_move_servo^(0+128),f
  1040  0D93  082D               	movf	??_move_servo^(0+128),w
  1041  0D94  1283               	bcf	3,5	;RP0=0, select bank0
  1042  0D95  1303               	bcf	3,6	;RP1=0, select bank0
  1043  0D96  0095               	movwf	21	;volatile
  1044  0D97                     i1l1925:
  1045                           
  1046                           ;main_slave1.c: 175:         CCP1CONbits.DC1B = CCPR & 0b11;
  1047  0D97  1683               	bsf	3,5	;RP0=1, select bank1
  1048  0D98  1303               	bcf	3,6	;RP1=0, select bank1
  1049  0D99  082B               	movf	move_servo@CCPR^(0+128),w
  1050  0D9A  3903               	andlw	3
  1051  0D9B  00AD               	movwf	??_move_servo^(0+128)
  1052  0D9C  0EAD               	swapf	??_move_servo^(0+128),f
  1053  0D9D  1283               	bcf	3,5	;RP0=0, select bank0
  1054  0D9E  1303               	bcf	3,6	;RP1=0, select bank0
  1055  0D9F  0817               	movf	23,w	;volatile
  1056  0DA0  1683               	bsf	3,5	;RP0=1, select bank1
  1057  0DA1  1303               	bcf	3,6	;RP1=0, select bank1
  1058  0DA2  062D               	xorwf	??_move_servo^(0+128),w
  1059  0DA3  39CF               	andlw	-49
  1060  0DA4  062D               	xorwf	??_move_servo^(0+128),w
  1061  0DA5  1283               	bcf	3,5	;RP0=0, select bank0
  1062  0DA6  1303               	bcf	3,6	;RP1=0, select bank0
  1063  0DA7  0097               	movwf	23	;volatile
  1064                           
  1065                           ;main_slave1.c: 176:     }
  1066  0DA8  2DF7               	goto	i1l87
  1067  0DA9                     i1l1927:
  1068                           
  1069                           ;main_slave1.c: 178:         CCPR = interpole(SSPBUF, 0, 255, 20, 80);
  1070  0DA9  1683               	bsf	3,5	;RP0=1, select bank1
  1071  0DAA  1303               	bcf	3,6	;RP1=0, select bank1
  1072  0DAB  01A5               	clrf	interpole@in_min^(0+128)
  1073  0DAC  30FF               	movlw	255
  1074  0DAD  00AD               	movwf	??_move_servo^(0+128)
  1075  0DAE  082D               	movf	??_move_servo^(0+128),w
  1076  0DAF  00A6               	movwf	interpole@in_max^(0+128)
  1077  0DB0  3014               	movlw	20
  1078  0DB1  00A7               	movwf	interpole@out_min^(0+128)
  1079  0DB2  3000               	movlw	0
  1080  0DB3  00A8               	movwf	(interpole@out_min^(0+128)+1)
  1081  0DB4  3050               	movlw	80
  1082  0DB5  00A9               	movwf	interpole@out_max^(0+128)
  1083  0DB6  3000               	movlw	0
  1084  0DB7  00AA               	movwf	(interpole@out_max^(0+128)+1)
  1085  0DB8  1283               	bcf	3,5	;RP0=0, select bank0
  1086  0DB9  1303               	bcf	3,6	;RP1=0, select bank0
  1087  0DBA  0813               	movf	19,w	;volatile
  1088  0DBB  120A  158A  2694  120A  158A  	fcall	_interpole
  1089  0DC0  1683               	bsf	3,5	;RP0=1, select bank1
  1090  0DC1  1303               	bcf	3,6	;RP1=0, select bank1
  1091  0DC2  0826               	movf	(?_interpole+1)^(0+128),w
  1092  0DC3  00AC               	movwf	(move_servo@CCPR+1)^(0+128)
  1093  0DC4  0825               	movf	?_interpole^(0+128),w
  1094  0DC5  00AB               	movwf	move_servo@CCPR^(0+128)
  1095  0DC6                     i1l1929:
  1096                           
  1097                           ;main_slave1.c: 179:         CCPR2L = (uint8_t) (CCPR>>2);
  1098  0DC6  082C               	movf	(move_servo@CCPR+1)^(0+128),w
  1099  0DC7  00AE               	movwf	(??_move_servo^(0+128)+1)
  1100  0DC8  082B               	movf	move_servo@CCPR^(0+128),w
  1101  0DC9  00AD               	movwf	??_move_servo^(0+128)
  1102  0DCA  1003               	clrc
  1103  0DCB  0CAE               	rrf	(??_move_servo^(0+128)+1),f
  1104  0DCC  0CAD               	rrf	??_move_servo^(0+128),f
  1105  0DCD  1003               	clrc
  1106  0DCE  0CAE               	rrf	(??_move_servo^(0+128)+1),f
  1107  0DCF  0CAD               	rrf	??_move_servo^(0+128),f
  1108  0DD0  082D               	movf	??_move_servo^(0+128),w
  1109  0DD1  1283               	bcf	3,5	;RP0=0, select bank0
  1110  0DD2  1303               	bcf	3,6	;RP1=0, select bank0
  1111  0DD3  009B               	movwf	27	;volatile
  1112  0DD4                     i1l1931:
  1113                           
  1114                           ;main_slave1.c: 180:         CCP2CONbits.DC2B0 = CCPR & 0b10;
  1115  0DD4  1683               	bsf	3,5	;RP0=1, select bank1
  1116  0DD5  1303               	bcf	3,6	;RP1=0, select bank1
  1117  0DD6  082B               	movf	move_servo@CCPR^(0+128),w
  1118  0DD7  3902               	andlw	2
  1119  0DD8  00AD               	movwf	??_move_servo^(0+128)
  1120  0DD9  0EAD               	swapf	??_move_servo^(0+128),f
  1121  0DDA  1283               	bcf	3,5	;RP0=0, select bank0
  1122  0DDB  1303               	bcf	3,6	;RP1=0, select bank0
  1123  0DDC  081D               	movf	29,w	;volatile
  1124  0DDD  1683               	bsf	3,5	;RP0=1, select bank1
  1125  0DDE  1303               	bcf	3,6	;RP1=0, select bank1
  1126  0DDF  062D               	xorwf	??_move_servo^(0+128),w
  1127  0DE0  39EF               	andlw	-17
  1128  0DE1  062D               	xorwf	??_move_servo^(0+128),w
  1129  0DE2  1283               	bcf	3,5	;RP0=0, select bank0
  1130  0DE3  1303               	bcf	3,6	;RP1=0, select bank0
  1131  0DE4  009D               	movwf	29	;volatile
  1132  0DE5                     i1l1933:
  1133                           
  1134                           ;main_slave1.c: 181:         CCP2CONbits.DC2B1 = CCPR & 0b01;
  1135  0DE5  1683               	bsf	3,5	;RP0=1, select bank1
  1136  0DE6  1303               	bcf	3,6	;RP1=0, select bank1
  1137  0DE7  082B               	movf	move_servo@CCPR^(0+128),w
  1138  0DE8  3901               	andlw	1
  1139  0DE9  00AD               	movwf	??_move_servo^(0+128)
  1140  0DEA  0EAD               	swapf	??_move_servo^(0+128),f
  1141  0DEB  0DAD               	rlf	??_move_servo^(0+128),f
  1142  0DEC  1283               	bcf	3,5	;RP0=0, select bank0
  1143  0DED  1303               	bcf	3,6	;RP1=0, select bank0
  1144  0DEE  081D               	movf	29,w	;volatile
  1145  0DEF  1683               	bsf	3,5	;RP0=1, select bank1
  1146  0DF0  1303               	bcf	3,6	;RP1=0, select bank1
  1147  0DF1  062D               	xorwf	??_move_servo^(0+128),w
  1148  0DF2  39DF               	andlw	-33
  1149  0DF3  062D               	xorwf	??_move_servo^(0+128),w
  1150  0DF4  1283               	bcf	3,5	;RP0=0, select bank0
  1151  0DF5  1303               	bcf	3,6	;RP1=0, select bank0
  1152  0DF6  009D               	movwf	29	;volatile
  1153  0DF7                     i1l87:
  1154  0DF7  0008               	return
  1155  0DF8                     __end_of_move_servo:
  1156                           
  1157                           	psect	text4
  1158  0E94                     __ptext4:	
  1159 ;; *************** function _interpole *****************
  1160 ;; Defined at:
  1161 ;;		line 162 in file "main_slave1.c"
  1162 ;; Parameters:    Size  Location     Type
  1163 ;;  value           1    wreg     unsigned char 
  1164 ;;  in_min          1    5[BANK1 ] unsigned char 
  1165 ;;  in_max          1    6[BANK1 ] unsigned char 
  1166 ;;  out_min         2    7[BANK1 ] unsigned short 
  1167 ;;  out_max         2    9[BANK1 ] unsigned short 
  1168 ;; Auto vars:     Size  Location     Type
  1169 ;;  value           1   78[BANK0 ] unsigned char 
  1170 ;; Return value:  Size  Location     Type
  1171 ;;                  2    5[BANK1 ] unsigned short 
  1172 ;; Registers used:
  1173 ;;		wreg, status,2, status,0, btemp+1, pclath, cstack
  1174 ;; Tracked objects:
  1175 ;;		On entry : 0/0
  1176 ;;		On exit  : 0/0
  1177 ;;		Unchanged: 0/0
  1178 ;; Data sizes:     COMMON   BANK0   BANK1   BANK3   BANK2
  1179 ;;      Params:         0       0       6       0       0
  1180 ;;      Locals:         0       1       0       0       0
  1181 ;;      Temps:          0       0       0       0       0
  1182 ;;      Totals:         0       1       6       0       0
  1183 ;;Total ram usage:        7 bytes
  1184 ;; Hardware stack levels used: 1
  1185 ;; Hardware stack levels required when called: 2
  1186 ;; This function calls:
  1187 ;;		___fladd
  1188 ;;		___fldiv
  1189 ;;		___flmul
  1190 ;;		___fltol
  1191 ;;		___xxtofl
  1192 ;; This function is called by:
  1193 ;;		_move_servo
  1194 ;; This function uses a non-reentrant model
  1195 ;;
  1196                           
  1197  0E94                     _interpole:	
  1198                           ;psect for function _interpole
  1199                           
  1200                           
  1201                           ;incstack = 0
  1202                           ; Regs used in _interpole: [wreg+status,2+status,0+btemp+1+pclath+cstack]
  1203                           ;interpole@value stored from wreg
  1204  0E94  1283               	bcf	3,5	;RP0=0, select bank0
  1205  0E95  1303               	bcf	3,6	;RP1=0, select bank0
  1206  0E96  00EE               	movwf	interpole@value
  1207  0E97                     i1l1915:
  1208                           
  1209                           ;main_slave1.c: 162: unsigned short interpole(uint8_t value, uint8_t in_min, uint8_t in_
      +                          max,;main_slave1.c: 163:                          unsigned short out_min, unsigned short
      +                           out_max){;main_slave1.c: 165:     return (unsigned short)(out_min+((float)(out_max-out_
      +                          min)/(in_max-in_min))*(value-in_min));
  1210  0E97  1683               	bsf	3,5	;RP0=1, select bank1
  1211  0E98  1303               	bcf	3,6	;RP1=0, select bank1
  1212  0E99  0827               	movf	interpole@out_min^(0+128),w
  1213  0E9A  00F0               	movwf	___xxtofl@val
  1214  0E9B  0828               	movf	(interpole@out_min+1)^(0+128),w
  1215  0E9C  00F1               	movwf	___xxtofl@val+1
  1216  0E9D  01F2               	clrf	___xxtofl@val+2
  1217  0E9E  01F3               	clrf	___xxtofl@val+3
  1218  0E9F  3000               	movlw	0
  1219  0EA0  120A  158A  2746  120A  158A  	fcall	___xxtofl
  1220  0EA5  0873               	movf	?___xxtofl+3,w
  1221  0EA6  1283               	bcf	3,5	;RP0=0, select bank0
  1222  0EA7  1303               	bcf	3,6	;RP1=0, select bank0
  1223  0EA8  00DB               	movwf	___fladd@a+3
  1224  0EA9  0872               	movf	?___xxtofl+2,w
  1225  0EAA  00DA               	movwf	___fladd@a+2
  1226  0EAB  0871               	movf	?___xxtofl+1,w
  1227  0EAC  00D9               	movwf	___fladd@a+1
  1228  0EAD  0870               	movf	?___xxtofl,w
  1229  0EAE  00D8               	movwf	___fladd@a
  1230  0EAF  1683               	bsf	3,5	;RP0=1, select bank1
  1231  0EB0  1303               	bcf	3,6	;RP1=0, select bank1
  1232  0EB1  0827               	movf	interpole@out_min^(0+128),w
  1233  0EB2  0229               	subwf	interpole@out_max^(0+128),w
  1234  0EB3  00F0               	movwf	___xxtofl@val
  1235  0EB4  0828               	movf	(interpole@out_min+1)^(0+128),w
  1236  0EB5  1C03               	skipc
  1237  0EB6  0A28               	incf	(interpole@out_min+1)^(0+128),w
  1238  0EB7  022A               	subwf	(interpole@out_max+1)^(0+128),w
  1239  0EB8  00F1               	movwf	___xxtofl@val+1
  1240  0EB9  01F2               	clrf	___xxtofl@val+2
  1241  0EBA  01F3               	clrf	___xxtofl@val+3
  1242  0EBB  3000               	movlw	0
  1243  0EBC  120A  158A  2746  120A  158A  	fcall	___xxtofl
  1244  0EC1  0873               	movf	?___xxtofl+3,w
  1245  0EC2  1283               	bcf	3,5	;RP0=0, select bank0
  1246  0EC3  1303               	bcf	3,6	;RP1=0, select bank0
  1247  0EC4  00A7               	movwf	___fldiv@b+3
  1248  0EC5  0872               	movf	?___xxtofl+2,w
  1249  0EC6  00A6               	movwf	___fldiv@b+2
  1250  0EC7  0871               	movf	?___xxtofl+1,w
  1251  0EC8  00A5               	movwf	___fldiv@b+1
  1252  0EC9  0870               	movf	?___xxtofl,w
  1253  0ECA  00A4               	movwf	___fldiv@b
  1254  0ECB  1683               	bsf	3,5	;RP0=1, select bank1
  1255  0ECC  1303               	bcf	3,6	;RP1=0, select bank1
  1256  0ECD  0825               	movf	interpole@in_min^(0+128),w
  1257  0ECE  0226               	subwf	interpole@in_max^(0+128),w
  1258  0ECF  00F0               	movwf	___xxtofl@val
  1259  0ED0  01F1               	clrf	___xxtofl@val+1
  1260  0ED1  1C03               	skipc
  1261  0ED2  03F1               	decf	___xxtofl@val+1,f
  1262  0ED3  01F2               	clrf	___xxtofl@val+2
  1263  0ED4  1BF1               	btfsc	___xxtofl@val+1,7
  1264  0ED5  03F2               	decf	___xxtofl@val+2,f
  1265  0ED6  0872               	movf	___xxtofl@val+2,w
  1266  0ED7  00F3               	movwf	___xxtofl@val+3
  1267  0ED8  3001               	movlw	1
  1268  0ED9  120A  158A  2746  120A  158A  	fcall	___xxtofl
  1269  0EDE  0873               	movf	?___xxtofl+3,w
  1270  0EDF  1283               	bcf	3,5	;RP0=0, select bank0
  1271  0EE0  1303               	bcf	3,6	;RP1=0, select bank0
  1272  0EE1  00A3               	movwf	___fldiv@a+3
  1273  0EE2  0872               	movf	?___xxtofl+2,w
  1274  0EE3  00A2               	movwf	___fldiv@a+2
  1275  0EE4  0871               	movf	?___xxtofl+1,w
  1276  0EE5  00A1               	movwf	___fldiv@a+1
  1277  0EE6  0870               	movf	?___xxtofl,w
  1278  0EE7  00A0               	movwf	___fldiv@a
  1279  0EE8  120A  118A  2606  120A  158A  	fcall	___fldiv
  1280  0EED  1283               	bcf	3,5	;RP0=0, select bank0
  1281  0EEE  1303               	bcf	3,6	;RP1=0, select bank0
  1282  0EEF  0823               	movf	?___fldiv+3,w
  1283  0EF0  00C1               	movwf	___flmul@a+3
  1284  0EF1  0822               	movf	?___fldiv+2,w
  1285  0EF2  00C0               	movwf	___flmul@a+2
  1286  0EF3  0821               	movf	?___fldiv+1,w
  1287  0EF4  00BF               	movwf	___flmul@a+1
  1288  0EF5  0820               	movf	?___fldiv,w
  1289  0EF6  00BE               	movwf	___flmul@a
  1290  0EF7  1683               	bsf	3,5	;RP0=1, select bank1
  1291  0EF8  1303               	bcf	3,6	;RP1=0, select bank1
  1292  0EF9  0825               	movf	interpole@in_min^(0+128),w
  1293  0EFA  1283               	bcf	3,5	;RP0=0, select bank0
  1294  0EFB  1303               	bcf	3,6	;RP1=0, select bank0
  1295  0EFC  026E               	subwf	interpole@value,w
  1296  0EFD  00F0               	movwf	___xxtofl@val
  1297  0EFE  01F1               	clrf	___xxtofl@val+1
  1298  0EFF  1C03               	skipc
  1299  0F00  03F1               	decf	___xxtofl@val+1,f
  1300  0F01  01F2               	clrf	___xxtofl@val+2
  1301  0F02  1BF1               	btfsc	___xxtofl@val+1,7
  1302  0F03  03F2               	decf	___xxtofl@val+2,f
  1303  0F04  0872               	movf	___xxtofl@val+2,w
  1304  0F05  00F3               	movwf	___xxtofl@val+3
  1305  0F06  3001               	movlw	1
  1306  0F07  120A  158A  2746  120A  158A  	fcall	___xxtofl
  1307  0F0C  0873               	movf	?___xxtofl+3,w
  1308  0F0D  1283               	bcf	3,5	;RP0=0, select bank0
  1309  0F0E  1303               	bcf	3,6	;RP1=0, select bank0
  1310  0F0F  00BD               	movwf	___flmul@b+3
  1311  0F10  0872               	movf	?___xxtofl+2,w
  1312  0F11  00BC               	movwf	___flmul@b+2
  1313  0F12  0871               	movf	?___xxtofl+1,w
  1314  0F13  00BB               	movwf	___flmul@b+1
  1315  0F14  0870               	movf	?___xxtofl,w
  1316  0F15  00BA               	movwf	___flmul@b
  1317  0F16  120A  118A  201D  120A  158A  	fcall	___flmul
  1318  0F1B  1283               	bcf	3,5	;RP0=0, select bank0
  1319  0F1C  1303               	bcf	3,6	;RP1=0, select bank0
  1320  0F1D  083D               	movf	?___flmul+3,w
  1321  0F1E  00D7               	movwf	___fladd@b+3
  1322  0F1F  083C               	movf	?___flmul+2,w
  1323  0F20  00D6               	movwf	___fladd@b+2
  1324  0F21  083B               	movf	?___flmul+1,w
  1325  0F22  00D5               	movwf	___fladd@b+1
  1326  0F23  083A               	movf	?___flmul,w
  1327  0F24  00D4               	movwf	___fladd@b
  1328  0F25  120A  118A  237E  120A  158A  	fcall	___fladd
  1329  0F2A  1283               	bcf	3,5	;RP0=0, select bank0
  1330  0F2B  1303               	bcf	3,6	;RP1=0, select bank0
  1331  0F2C  0857               	movf	?___fladd+3,w
  1332  0F2D  00EB               	movwf	___fltol@f1+3
  1333  0F2E  0856               	movf	?___fladd+2,w
  1334  0F2F  00EA               	movwf	___fltol@f1+2
  1335  0F30  0855               	movf	?___fladd+1,w
  1336  0F31  00E9               	movwf	___fltol@f1+1
  1337  0F32  0854               	movf	?___fladd,w
  1338  0F33  00E8               	movwf	___fltol@f1
  1339  0F34  120A  158A  25F8  120A  158A  	fcall	___fltol
  1340  0F39  1283               	bcf	3,5	;RP0=0, select bank0
  1341  0F3A  1303               	bcf	3,6	;RP1=0, select bank0
  1342  0F3B  0869               	movf	?___fltol+1,w
  1343  0F3C  1683               	bsf	3,5	;RP0=1, select bank1
  1344  0F3D  1303               	bcf	3,6	;RP1=0, select bank1
  1345  0F3E  00A6               	movwf	(?_interpole+1)^(0+128)
  1346  0F3F  1283               	bcf	3,5	;RP0=0, select bank0
  1347  0F40  1303               	bcf	3,6	;RP1=0, select bank0
  1348  0F41  0868               	movf	?___fltol,w
  1349  0F42  1683               	bsf	3,5	;RP0=1, select bank1
  1350  0F43  1303               	bcf	3,6	;RP1=0, select bank1
  1351  0F44  00A5               	movwf	?_interpole^(0+128)
  1352  0F45                     i1l82:
  1353  0F45  0008               	return
  1354  0F46                     __end_of_interpole:
  1355                           
  1356                           	psect	text5
  1357  0F46                     __ptext5:	
  1358 ;; *************** function ___xxtofl *****************
  1359 ;; Defined at:
  1360 ;;		line 10 in file "C:\Program Files\Microchip\xc8\v2.35\pic\sources\c90\common\xxtofl.c"
  1361 ;; Parameters:    Size  Location     Type
  1362 ;;  sign            1    wreg     unsigned char 
  1363 ;;  val             4    0[COMMON] long 
  1364 ;; Auto vars:     Size  Location     Type
  1365 ;;  sign            1    8[COMMON] unsigned char 
  1366 ;;  arg             4   10[COMMON] unsigned long 
  1367 ;;  exp             1    9[COMMON] unsigned char 
  1368 ;; Return value:  Size  Location     Type
  1369 ;;                  4    0[COMMON] unsigned char 
  1370 ;; Registers used:
  1371 ;;		wreg, status,2, status,0
  1372 ;; Tracked objects:
  1373 ;;		On entry : 0/0
  1374 ;;		On exit  : 0/0
  1375 ;;		Unchanged: 0/0
  1376 ;; Data sizes:     COMMON   BANK0   BANK1   BANK3   BANK2
  1377 ;;      Params:         4       0       0       0       0
  1378 ;;      Locals:         6       0       0       0       0
  1379 ;;      Temps:          4       0       0       0       0
  1380 ;;      Totals:        14       0       0       0       0
  1381 ;;Total ram usage:       14 bytes
  1382 ;; Hardware stack levels used: 1
  1383 ;; This function calls:
  1384 ;;		Nothing
  1385 ;; This function is called by:
  1386 ;;		_interpole
  1387 ;; This function uses a non-reentrant model
  1388 ;;
  1389                           
  1390  0F46                     ___xxtofl:	
  1391                           ;psect for function ___xxtofl
  1392                           
  1393                           
  1394                           ;incstack = 0
  1395                           ; Regs used in ___xxtofl: [wreg+status,2+status,0]
  1396                           ;___xxtofl@sign stored from wreg
  1397  0F46  00F8               	movwf	___xxtofl@sign
  1398  0F47                     i1l1871:
  1399  0F47  0878               	movf	___xxtofl@sign,w
  1400  0F48  1903               	btfsc	3,2
  1401  0F49  2F4B               	goto	u270_21
  1402  0F4A  2F4C               	goto	u270_20
  1403  0F4B                     u270_21:
  1404  0F4B  2F60               	goto	i1l1877
  1405  0F4C                     u270_20:
  1406  0F4C                     i1l1873:
  1407  0F4C  1FF3               	btfss	___xxtofl@val+3,7
  1408  0F4D  2F4F               	goto	u271_21
  1409  0F4E  2F50               	goto	u271_20
  1410  0F4F                     u271_21:
  1411  0F4F  2F60               	goto	i1l1877
  1412  0F50                     u271_20:
  1413  0F50                     i1l1875:
  1414  0F50  0970               	comf	___xxtofl@val,w
  1415  0F51  00FA               	movwf	___xxtofl@arg
  1416  0F52  0971               	comf	___xxtofl@val+1,w
  1417  0F53  00FB               	movwf	___xxtofl@arg+1
  1418  0F54  0972               	comf	___xxtofl@val+2,w
  1419  0F55  00FC               	movwf	___xxtofl@arg+2
  1420  0F56  0973               	comf	___xxtofl@val+3,w
  1421  0F57  00FD               	movwf	___xxtofl@arg+3
  1422  0F58  0AFA               	incf	___xxtofl@arg,f
  1423  0F59  1903               	skipnz
  1424  0F5A  0AFB               	incf	___xxtofl@arg+1,f
  1425  0F5B  1903               	skipnz
  1426  0F5C  0AFC               	incf	___xxtofl@arg+2,f
  1427  0F5D  1903               	skipnz
  1428  0F5E  0AFD               	incf	___xxtofl@arg+3,f
  1429  0F5F  2F68               	goto	i1l606
  1430  0F60                     i1l1877:
  1431  0F60  0873               	movf	___xxtofl@val+3,w
  1432  0F61  00FD               	movwf	___xxtofl@arg+3
  1433  0F62  0872               	movf	___xxtofl@val+2,w
  1434  0F63  00FC               	movwf	___xxtofl@arg+2
  1435  0F64  0871               	movf	___xxtofl@val+1,w
  1436  0F65  00FB               	movwf	___xxtofl@arg+1
  1437  0F66  0870               	movf	___xxtofl@val,w
  1438  0F67  00FA               	movwf	___xxtofl@arg
  1439  0F68                     i1l606:
  1440  0F68  0873               	movf	___xxtofl@val+3,w
  1441  0F69  0472               	iorwf	___xxtofl@val+2,w
  1442  0F6A  0471               	iorwf	___xxtofl@val+1,w
  1443  0F6B  0470               	iorwf	___xxtofl@val,w
  1444  0F6C  1D03               	skipz
  1445  0F6D  2F6F               	goto	u272_21
  1446  0F6E  2F70               	goto	u272_20
  1447  0F6F                     u272_21:
  1448  0F6F  2F79               	goto	i1l1883
  1449  0F70                     u272_20:
  1450  0F70                     i1l1879:
  1451  0F70  3000               	movlw	0
  1452  0F71  00F3               	movwf	?___xxtofl+3
  1453  0F72  3000               	movlw	0
  1454  0F73  00F2               	movwf	?___xxtofl+2
  1455  0F74  3000               	movlw	0
  1456  0F75  00F1               	movwf	?___xxtofl+1
  1457  0F76  3000               	movlw	0
  1458  0F77  00F0               	movwf	?___xxtofl
  1459  0F78  2FFF               	goto	i1l608
  1460  0F79                     i1l1883:
  1461  0F79  3096               	movlw	150
  1462  0F7A  00F4               	movwf	??___xxtofl
  1463  0F7B  0874               	movf	??___xxtofl,w
  1464  0F7C  00F9               	movwf	___xxtofl@exp
  1465  0F7D  2F8B               	goto	i1l1887
  1466  0F7E                     i1l1885:
  1467  0F7E  3001               	movlw	1
  1468  0F7F  00F4               	movwf	??___xxtofl
  1469  0F80  0874               	movf	??___xxtofl,w
  1470  0F81  07F9               	addwf	___xxtofl@exp,f
  1471  0F82  3001               	movlw	1
  1472  0F83                     u273_25:
  1473  0F83  1003               	clrc
  1474  0F84  0CFD               	rrf	___xxtofl@arg+3,f
  1475  0F85  0CFC               	rrf	___xxtofl@arg+2,f
  1476  0F86  0CFB               	rrf	___xxtofl@arg+1,f
  1477  0F87  0CFA               	rrf	___xxtofl@arg,f
  1478  0F88  3EFF               	addlw	-1
  1479  0F89  1D03               	skipz
  1480  0F8A  2F83               	goto	u273_25
  1481  0F8B                     i1l1887:
  1482  0F8B  30FE               	movlw	254
  1483  0F8C  057D               	andwf	___xxtofl@arg+3,w
  1484  0F8D  1D03               	btfss	3,2
  1485  0F8E  2F90               	goto	u274_21
  1486  0F8F  2F91               	goto	u274_20
  1487  0F90                     u274_21:
  1488  0F90  2F7E               	goto	i1l1885
  1489  0F91                     u274_20:
  1490  0F91  2FAD               	goto	i1l612
  1491  0F92                     i1l1889:
  1492  0F92  3001               	movlw	1
  1493  0F93  00F4               	movwf	??___xxtofl
  1494  0F94  0874               	movf	??___xxtofl,w
  1495  0F95  07F9               	addwf	___xxtofl@exp,f
  1496  0F96                     i1l1891:
  1497  0F96  3001               	movlw	1
  1498  0F97  07FA               	addwf	___xxtofl@arg,f
  1499  0F98  3000               	movlw	0
  1500  0F99  1803               	skipnc
  1501  0F9A  3001               	movlw	1
  1502  0F9B  07FB               	addwf	___xxtofl@arg+1,f
  1503  0F9C  3000               	movlw	0
  1504  0F9D  1803               	skipnc
  1505  0F9E  3001               	movlw	1
  1506  0F9F  07FC               	addwf	___xxtofl@arg+2,f
  1507  0FA0  3000               	movlw	0
  1508  0FA1  1803               	skipnc
  1509  0FA2  3001               	movlw	1
  1510  0FA3  07FD               	addwf	___xxtofl@arg+3,f
  1511  0FA4                     i1l1893:
  1512  0FA4  3001               	movlw	1
  1513  0FA5                     u275_25:
  1514  0FA5  1003               	clrc
  1515  0FA6  0CFD               	rrf	___xxtofl@arg+3,f
  1516  0FA7  0CFC               	rrf	___xxtofl@arg+2,f
  1517  0FA8  0CFB               	rrf	___xxtofl@arg+1,f
  1518  0FA9  0CFA               	rrf	___xxtofl@arg,f
  1519  0FAA  3EFF               	addlw	-1
  1520  0FAB  1D03               	skipz
  1521  0FAC  2FA5               	goto	u275_25
  1522  0FAD                     i1l612:
  1523  0FAD  30FF               	movlw	255
  1524  0FAE  057D               	andwf	___xxtofl@arg+3,w
  1525  0FAF  1D03               	btfss	3,2
  1526  0FB0  2FB2               	goto	u276_21
  1527  0FB1  2FB3               	goto	u276_20
  1528  0FB2                     u276_21:
  1529  0FB2  2F92               	goto	i1l1889
  1530  0FB3                     u276_20:
  1531  0FB3  2FBF               	goto	i1l1897
  1532  0FB4                     i1l1895:
  1533  0FB4  3001               	movlw	1
  1534  0FB5  02F9               	subwf	___xxtofl@exp,f
  1535  0FB6  3001               	movlw	1
  1536  0FB7  00F4               	movwf	??___xxtofl
  1537  0FB8                     u277_25:
  1538  0FB8  1003               	clrc
  1539  0FB9  0DFA               	rlf	___xxtofl@arg,f
  1540  0FBA  0DFB               	rlf	___xxtofl@arg+1,f
  1541  0FBB  0DFC               	rlf	___xxtofl@arg+2,f
  1542  0FBC  0DFD               	rlf	___xxtofl@arg+3,f
  1543  0FBD  0BF4               	decfsz	??___xxtofl,f
  1544  0FBE  2FB8               	goto	u277_25
  1545  0FBF                     i1l1897:
  1546  0FBF  1BFC               	btfsc	___xxtofl@arg+2,7
  1547  0FC0  2FC2               	goto	u278_21
  1548  0FC1  2FC3               	goto	u278_20
  1549  0FC2                     u278_21:
  1550  0FC2  2FC9               	goto	i1l619
  1551  0FC3                     u278_20:
  1552  0FC3                     i1l1899:
  1553  0FC3  3002               	movlw	2
  1554  0FC4  0279               	subwf	___xxtofl@exp,w
  1555  0FC5  1803               	skipnc
  1556  0FC6  2FC8               	goto	u279_21
  1557  0FC7  2FC9               	goto	u279_20
  1558  0FC8                     u279_21:
  1559  0FC8  2FB4               	goto	i1l1895
  1560  0FC9                     u279_20:
  1561  0FC9                     i1l619:
  1562  0FC9  1879               	btfsc	___xxtofl@exp,0
  1563  0FCA  2FCC               	goto	u280_21
  1564  0FCB  2FCD               	goto	u280_20
  1565  0FCC                     u280_21:
  1566  0FCC  2FD5               	goto	i1l620
  1567  0FCD                     u280_20:
  1568  0FCD                     i1l1901:
  1569  0FCD  30FF               	movlw	255
  1570  0FCE  05FA               	andwf	___xxtofl@arg,f
  1571  0FCF  30FF               	movlw	255
  1572  0FD0  05FB               	andwf	___xxtofl@arg+1,f
  1573  0FD1  307F               	movlw	127
  1574  0FD2  05FC               	andwf	___xxtofl@arg+2,f
  1575  0FD3  30FF               	movlw	255
  1576  0FD4  05FD               	andwf	___xxtofl@arg+3,f
  1577  0FD5                     i1l620:
  1578  0FD5  1003               	clrc
  1579  0FD6  0CF9               	rrf	___xxtofl@exp,f
  1580  0FD7                     i1l1903:
  1581  0FD7  0879               	movf	___xxtofl@exp,w
  1582  0FD8  00F4               	movwf	??___xxtofl
  1583  0FD9  01F5               	clrf	??___xxtofl+1
  1584  0FDA  01F6               	clrf	??___xxtofl+2
  1585  0FDB  01F7               	clrf	??___xxtofl+3
  1586  0FDC  3018               	movlw	24
  1587  0FDD                     u281_25:
  1588  0FDD  1003               	clrc
  1589  0FDE  0DF4               	rlf	??___xxtofl,f
  1590  0FDF  0DF5               	rlf	??___xxtofl+1,f
  1591  0FE0  0DF6               	rlf	??___xxtofl+2,f
  1592  0FE1  0DF7               	rlf	??___xxtofl+3,f
  1593  0FE2                     u281_20:
  1594  0FE2  3EFF               	addlw	-1
  1595  0FE3  1D03               	skipz
  1596  0FE4  2FDD               	goto	u281_25
  1597  0FE5  0874               	movf	??___xxtofl,w
  1598  0FE6  04FA               	iorwf	___xxtofl@arg,f
  1599  0FE7  0875               	movf	??___xxtofl+1,w
  1600  0FE8  04FB               	iorwf	___xxtofl@arg+1,f
  1601  0FE9  0876               	movf	??___xxtofl+2,w
  1602  0FEA  04FC               	iorwf	___xxtofl@arg+2,f
  1603  0FEB  0877               	movf	??___xxtofl+3,w
  1604  0FEC  04FD               	iorwf	___xxtofl@arg+3,f
  1605  0FED                     i1l1905:
  1606  0FED  0878               	movf	___xxtofl@sign,w
  1607  0FEE  1903               	btfsc	3,2
  1608  0FEF  2FF1               	goto	u282_21
  1609  0FF0  2FF2               	goto	u282_20
  1610  0FF1                     u282_21:
  1611  0FF1  2FF7               	goto	i1l1911
  1612  0FF2                     u282_20:
  1613  0FF2                     i1l1907:
  1614  0FF2  1FF3               	btfss	___xxtofl@val+3,7
  1615  0FF3  2FF5               	goto	u283_21
  1616  0FF4  2FF6               	goto	u283_20
  1617  0FF5                     u283_21:
  1618  0FF5  2FF7               	goto	i1l1911
  1619  0FF6                     u283_20:
  1620  0FF6                     i1l1909:
  1621  0FF6  17FD               	bsf	___xxtofl@arg+3,7
  1622  0FF7                     i1l1911:
  1623  0FF7  087D               	movf	___xxtofl@arg+3,w
  1624  0FF8  00F3               	movwf	?___xxtofl+3
  1625  0FF9  087C               	movf	___xxtofl@arg+2,w
  1626  0FFA  00F2               	movwf	?___xxtofl+2
  1627  0FFB  087B               	movf	___xxtofl@arg+1,w
  1628  0FFC  00F1               	movwf	?___xxtofl+1
  1629  0FFD  087A               	movf	___xxtofl@arg,w
  1630  0FFE  00F0               	movwf	?___xxtofl
  1631  0FFF                     i1l608:
  1632  0FFF  0008               	return
  1633  1000                     __end_of___xxtofl:
  1634                           
  1635                           	psect	text6
  1636  0DF8                     __ptext6:	
  1637 ;; *************** function ___fltol *****************
  1638 ;; Defined at:
  1639 ;;		line 43 in file "C:\Program Files\Microchip\xc8\v2.35\pic\sources\c90\common\fltol.c"
  1640 ;; Parameters:    Size  Location     Type
  1641 ;;  f1              4   72[BANK0 ] unsigned char 
  1642 ;; Auto vars:     Size  Location     Type
  1643 ;;  exp1            1   77[BANK0 ] unsigned char 
  1644 ;;  sign1           1   76[BANK0 ] unsigned char 
  1645 ;; Return value:  Size  Location     Type
  1646 ;;                  4   72[BANK0 ] long 
  1647 ;; Registers used:
  1648 ;;		wreg, status,2, status,0
  1649 ;; Tracked objects:
  1650 ;;		On entry : 0/0
  1651 ;;		On exit  : 0/0
  1652 ;;		Unchanged: 0/0
  1653 ;; Data sizes:     COMMON   BANK0   BANK1   BANK3   BANK2
  1654 ;;      Params:         0       4       0       0       0
  1655 ;;      Locals:         0       2       0       0       0
  1656 ;;      Temps:          0       0       5       0       0
  1657 ;;      Totals:         0       6       5       0       0
  1658 ;;Total ram usage:       11 bytes
  1659 ;; Hardware stack levels used: 1
  1660 ;; This function calls:
  1661 ;;		Nothing
  1662 ;; This function is called by:
  1663 ;;		_interpole
  1664 ;; This function uses a non-reentrant model
  1665 ;;
  1666                           
  1667  0DF8                     ___fltol:	
  1668                           ;psect for function ___fltol
  1669                           
  1670  0DF8                     i1l1359:	
  1671                           ;incstack = 0
  1672                           ; Regs used in ___fltol: [wreg+status,2+status,0]
  1673                           
  1674  0DF8  1003               	clrc
  1675  0DF9  1283               	bcf	3,5	;RP0=0, select bank0
  1676  0DFA  1303               	bcf	3,6	;RP1=0, select bank0
  1677  0DFB  0D6A               	rlf	___fltol@f1+2,w
  1678  0DFC  0D6B               	rlf	___fltol@f1+3,w
  1679  0DFD  1683               	bsf	3,5	;RP0=1, select bank1
  1680  0DFE  1303               	bcf	3,6	;RP1=0, select bank1
  1681  0DFF  00A0               	movwf	??___fltol^(0+128)
  1682  0E00  0820               	movf	??___fltol^(0+128),w
  1683  0E01  1283               	bcf	3,5	;RP0=0, select bank0
  1684  0E02  1303               	bcf	3,6	;RP1=0, select bank0
  1685  0E03  00ED               	movwf	___fltol@exp1
  1686  0E04  086D               	movf	___fltol@exp1,w
  1687  0E05  1D03               	btfss	3,2
  1688  0E06  2E08               	goto	u148_21
  1689  0E07  2E09               	goto	u148_20
  1690  0E08                     u148_21:
  1691  0E08  2E12               	goto	i1l1365
  1692  0E09                     u148_20:
  1693  0E09                     i1l1361:
  1694  0E09  3000               	movlw	0
  1695  0E0A  00EB               	movwf	?___fltol+3
  1696  0E0B  3000               	movlw	0
  1697  0E0C  00EA               	movwf	?___fltol+2
  1698  0E0D  3000               	movlw	0
  1699  0E0E  00E9               	movwf	?___fltol+1
  1700  0E0F  3000               	movlw	0
  1701  0E10  00E8               	movwf	?___fltol
  1702  0E11  2E93               	goto	i1l359
  1703  0E12                     i1l1365:
  1704  0E12  0868               	movf	___fltol@f1,w
  1705  0E13  1683               	bsf	3,5	;RP0=1, select bank1
  1706  0E14  1303               	bcf	3,6	;RP1=0, select bank1
  1707  0E15  00A0               	movwf	??___fltol^(0+128)
  1708  0E16  1283               	bcf	3,5	;RP0=0, select bank0
  1709  0E17  1303               	bcf	3,6	;RP1=0, select bank0
  1710  0E18  0869               	movf	___fltol@f1+1,w
  1711  0E19  1683               	bsf	3,5	;RP0=1, select bank1
  1712  0E1A  1303               	bcf	3,6	;RP1=0, select bank1
  1713  0E1B  00A1               	movwf	(??___fltol^(0+128)+1)
  1714  0E1C  1283               	bcf	3,5	;RP0=0, select bank0
  1715  0E1D  1303               	bcf	3,6	;RP1=0, select bank0
  1716  0E1E  086A               	movf	___fltol@f1+2,w
  1717  0E1F  1683               	bsf	3,5	;RP0=1, select bank1
  1718  0E20  1303               	bcf	3,6	;RP1=0, select bank1
  1719  0E21  00A2               	movwf	(??___fltol^(0+128)+2)
  1720  0E22  1283               	bcf	3,5	;RP0=0, select bank0
  1721  0E23  1303               	bcf	3,6	;RP1=0, select bank0
  1722  0E24  086B               	movf	___fltol@f1+3,w
  1723  0E25  1683               	bsf	3,5	;RP0=1, select bank1
  1724  0E26  1303               	bcf	3,6	;RP1=0, select bank1
  1725  0E27  00A3               	movwf	(??___fltol^(0+128)+3)
  1726  0E28  301F               	movlw	31
  1727  0E29                     u149_25:
  1728  0E29  1003               	clrc
  1729  0E2A  0CA3               	rrf	(??___fltol^(0+128)+3),f
  1730  0E2B  0CA2               	rrf	(??___fltol^(0+128)+2),f
  1731  0E2C  0CA1               	rrf	(??___fltol^(0+128)+1),f
  1732  0E2D  0CA0               	rrf	??___fltol^(0+128),f
  1733  0E2E                     u149_20:
  1734  0E2E  3EFF               	addlw	-1
  1735  0E2F  1D03               	skipz
  1736  0E30  2E29               	goto	u149_25
  1737  0E31  0820               	movf	??___fltol^(0+128),w
  1738  0E32  00A4               	movwf	(??___fltol+4)^(0+128)
  1739  0E33  0824               	movf	(??___fltol+4)^(0+128),w
  1740  0E34  1283               	bcf	3,5	;RP0=0, select bank0
  1741  0E35  1303               	bcf	3,6	;RP1=0, select bank0
  1742  0E36  00EC               	movwf	___fltol@sign1
  1743  0E37                     i1l1367:
  1744  0E37  17EA               	bsf	___fltol@f1+2,7
  1745  0E38                     i1l1369:
  1746  0E38  30FF               	movlw	255
  1747  0E39  05E8               	andwf	___fltol@f1,f
  1748  0E3A  30FF               	movlw	255
  1749  0E3B  05E9               	andwf	___fltol@f1+1,f
  1750  0E3C  30FF               	movlw	255
  1751  0E3D  05EA               	andwf	___fltol@f1+2,f
  1752  0E3E  3000               	movlw	0
  1753  0E3F  05EB               	andwf	___fltol@f1+3,f
  1754  0E40                     i1l1371:
  1755  0E40  3096               	movlw	150
  1756  0E41  02ED               	subwf	___fltol@exp1,f
  1757  0E42                     i1l1373:
  1758  0E42  1FED               	btfss	___fltol@exp1,7
  1759  0E43  2E45               	goto	u150_21
  1760  0E44  2E46               	goto	u150_20
  1761  0E45                     u150_21:
  1762  0E45  2E64               	goto	i1l1383
  1763  0E46                     u150_20:
  1764  0E46                     i1l1375:
  1765  0E46  086D               	movf	___fltol@exp1,w
  1766  0E47  3A80               	xorlw	128
  1767  0E48  3E97               	addlw	151
  1768  0E49  1803               	skipnc
  1769  0E4A  2E4C               	goto	u151_21
  1770  0E4B  2E4D               	goto	u151_20
  1771  0E4C                     u151_21:
  1772  0E4C  2E4E               	goto	i1l1381
  1773  0E4D                     u151_20:
  1774  0E4D  2E09               	goto	i1l1361
  1775  0E4E                     i1l1381:
  1776  0E4E  3001               	movlw	1
  1777  0E4F                     u152_25:
  1778  0E4F  1003               	clrc
  1779  0E50  0CEB               	rrf	___fltol@f1+3,f
  1780  0E51  0CEA               	rrf	___fltol@f1+2,f
  1781  0E52  0CE9               	rrf	___fltol@f1+1,f
  1782  0E53  0CE8               	rrf	___fltol@f1,f
  1783  0E54  3EFF               	addlw	-1
  1784  0E55  1D03               	skipz
  1785  0E56  2E4F               	goto	u152_25
  1786  0E57  3001               	movlw	1
  1787  0E58  1683               	bsf	3,5	;RP0=1, select bank1
  1788  0E59  1303               	bcf	3,6	;RP1=0, select bank1
  1789  0E5A  00A0               	movwf	??___fltol^(0+128)
  1790  0E5B  0820               	movf	??___fltol^(0+128),w
  1791  0E5C  1283               	bcf	3,5	;RP0=0, select bank0
  1792  0E5D  1303               	bcf	3,6	;RP1=0, select bank0
  1793  0E5E  07ED               	addwf	___fltol@exp1,f
  1794  0E5F  1D03               	btfss	3,2
  1795  0E60  2E62               	goto	u153_21
  1796  0E61  2E63               	goto	u153_20
  1797  0E62                     u153_21:
  1798  0E62  2E4E               	goto	i1l1381
  1799  0E63                     u153_20:
  1800  0E63  2E83               	goto	i1l1391
  1801  0E64                     i1l1383:
  1802  0E64  3020               	movlw	32
  1803  0E65  026D               	subwf	___fltol@exp1,w
  1804  0E66  1C03               	skipc
  1805  0E67  2E69               	goto	u154_21
  1806  0E68  2E6A               	goto	u154_20
  1807  0E69                     u154_21:
  1808  0E69  2E7E               	goto	i1l366
  1809  0E6A                     u154_20:
  1810  0E6A  2E09               	goto	i1l1361
  1811  0E6B                     i1l1389:
  1812  0E6B  3001               	movlw	1
  1813  0E6C  1683               	bsf	3,5	;RP0=1, select bank1
  1814  0E6D  1303               	bcf	3,6	;RP1=0, select bank1
  1815  0E6E  00A0               	movwf	??___fltol^(0+128)
  1816  0E6F                     u155_25:
  1817  0E6F  1003               	clrc
  1818  0E70  1283               	bcf	3,5	;RP0=0, select bank0
  1819  0E71  1303               	bcf	3,6	;RP1=0, select bank0
  1820  0E72  0DE8               	rlf	___fltol@f1,f
  1821  0E73  0DE9               	rlf	___fltol@f1+1,f
  1822  0E74  0DEA               	rlf	___fltol@f1+2,f
  1823  0E75  0DEB               	rlf	___fltol@f1+3,f
  1824  0E76  1683               	bsf	3,5	;RP0=1, select bank1
  1825  0E77  1303               	bcf	3,6	;RP1=0, select bank1
  1826  0E78  0BA0               	decfsz	??___fltol^(0+128),f
  1827  0E79  2E6F               	goto	u155_25
  1828  0E7A  3001               	movlw	1
  1829  0E7B  1283               	bcf	3,5	;RP0=0, select bank0
  1830  0E7C  1303               	bcf	3,6	;RP1=0, select bank0
  1831  0E7D  02ED               	subwf	___fltol@exp1,f
  1832  0E7E                     i1l366:
  1833  0E7E  086D               	movf	___fltol@exp1,w
  1834  0E7F  1D03               	btfss	3,2
  1835  0E80  2E82               	goto	u156_21
  1836  0E81  2E83               	goto	u156_20
  1837  0E82                     u156_21:
  1838  0E82  2E6B               	goto	i1l1389
  1839  0E83                     u156_20:
  1840  0E83                     i1l1391:
  1841  0E83  086C               	movf	___fltol@sign1,w
  1842  0E84  1903               	btfsc	3,2
  1843  0E85  2E87               	goto	u157_21
  1844  0E86  2E88               	goto	u157_20
  1845  0E87                     u157_21:
  1846  0E87  2E93               	goto	i1l369
  1847  0E88                     u157_20:
  1848  0E88                     i1l1393:
  1849  0E88  09E8               	comf	___fltol@f1,f
  1850  0E89  09E9               	comf	___fltol@f1+1,f
  1851  0E8A  09EA               	comf	___fltol@f1+2,f
  1852  0E8B  09EB               	comf	___fltol@f1+3,f
  1853  0E8C  0AE8               	incf	___fltol@f1,f
  1854  0E8D  1903               	skipnz
  1855  0E8E  0AE9               	incf	___fltol@f1+1,f
  1856  0E8F  1903               	skipnz
  1857  0E90  0AEA               	incf	___fltol@f1+2,f
  1858  0E91  1903               	skipnz
  1859  0E92  0AEB               	incf	___fltol@f1+3,f
  1860  0E93                     i1l369:
  1861  0E93                     i1l359:
  1862  0E93  0008               	return
  1863  0E94                     __end_of___fltol:
  1864                           
  1865                           	psect	text7
  1866  001D                     __ptext7:	
  1867 ;; *************** function ___flmul *****************
  1868 ;; Defined at:
  1869 ;;		line 8 in file "C:\Program Files\Microchip\xc8\v2.35\pic\sources\c90\common\sprcmul.c"
  1870 ;; Parameters:    Size  Location     Type
  1871 ;;  b               4   26[BANK0 ] long 
  1872 ;;  a               4   30[BANK0 ] long 
  1873 ;; Auto vars:     Size  Location     Type
  1874 ;;  prod            4   46[BANK0 ] struct .
  1875 ;;  grs             4   40[BANK0 ] unsigned long 
  1876 ;;  temp            2   50[BANK0 ] struct .
  1877 ;;  bexp            1   45[BANK0 ] unsigned char 
  1878 ;;  aexp            1   44[BANK0 ] unsigned char 
  1879 ;;  sign            1   39[BANK0 ] unsigned char 
  1880 ;; Return value:  Size  Location     Type
  1881 ;;                  4   26[BANK0 ] unsigned char 
  1882 ;; Registers used:
  1883 ;;		wreg, status,2, status,0, btemp+1, pclath, cstack
  1884 ;; Tracked objects:
  1885 ;;		On entry : 0/0
  1886 ;;		On exit  : 0/0
  1887 ;;		Unchanged: 0/0
  1888 ;; Data sizes:     COMMON   BANK0   BANK1   BANK3   BANK2
  1889 ;;      Params:         0       8       0       0       0
  1890 ;;      Locals:         0      13       0       0       0
  1891 ;;      Temps:          0       5       0       0       0
  1892 ;;      Totals:         0      26       0       0       0
  1893 ;;Total ram usage:       26 bytes
  1894 ;; Hardware stack levels used: 1
  1895 ;; Hardware stack levels required when called: 1
  1896 ;; This function calls:
  1897 ;;		__Umul8_16
  1898 ;; This function is called by:
  1899 ;;		_interpole
  1900 ;; This function uses a non-reentrant model
  1901 ;;
  1902                           
  1903  001D                     ___flmul:	
  1904                           ;psect for function ___flmul
  1905                           
  1906  001D                     i1l1731:	
  1907                           ;incstack = 0
  1908                           ; Regs used in ___flmul: [wreg+status,2+status,0+btemp+1+pclath+cstack]
  1909                           
  1910  001D  1283               	bcf	3,5	;RP0=0, select bank0
  1911  001E  1303               	bcf	3,6	;RP1=0, select bank0
  1912  001F  083D               	movf	___flmul@b+3,w
  1913  0020  3980               	andlw	128
  1914  0021  00C2               	movwf	??___flmul
  1915  0022  0842               	movf	??___flmul,w
  1916  0023  00C7               	movwf	___flmul@sign
  1917  0024                     i1l1733:
  1918  0024  083D               	movf	___flmul@b+3,w
  1919  0025  00C2               	movwf	??___flmul
  1920  0026  0742               	addwf	??___flmul,w
  1921  0027  00C3               	movwf	??___flmul+1
  1922  0028  0843               	movf	??___flmul+1,w
  1923  0029  00CD               	movwf	___flmul@bexp
  1924  002A                     i1l1735:
  1925  002A  1FBC               	btfss	___flmul@b+2,7
  1926  002B  282D               	goto	u233_21
  1927  002C  282E               	goto	u233_20
  1928  002D                     u233_21:
  1929  002D  282F               	goto	i1l1739
  1930  002E                     u233_20:
  1931  002E                     i1l1737:
  1932  002E  144D               	bsf	___flmul@bexp,0
  1933  002F                     i1l1739:
  1934  002F  084D               	movf	___flmul@bexp,w
  1935  0030  1903               	btfsc	3,2
  1936  0031  2833               	goto	u234_21
  1937  0032  2834               	goto	u234_20
  1938  0033                     u234_21:
  1939  0033  2843               	goto	i1l1747
  1940  0034                     u234_20:
  1941  0034                     i1l1741:
  1942  0034  0A4D               	incf	___flmul@bexp,w
  1943  0035  1D03               	btfss	3,2
  1944  0036  2838               	goto	u235_21
  1945  0037  2839               	goto	u235_20
  1946  0038                     u235_21:
  1947  0038  2841               	goto	i1l1745
  1948  0039                     u235_20:
  1949  0039                     i1l1743:
  1950  0039  3000               	movlw	0
  1951  003A  00BD               	movwf	___flmul@b+3
  1952  003B  3000               	movlw	0
  1953  003C  00BC               	movwf	___flmul@b+2
  1954  003D  3000               	movlw	0
  1955  003E  00BB               	movwf	___flmul@b+1
  1956  003F  3000               	movlw	0
  1957  0040  00BA               	movwf	___flmul@b
  1958  0041                     i1l1745:
  1959  0041  17BC               	bsf	___flmul@b+2,7
  1960  0042  284B               	goto	i1l1749
  1961  0043                     i1l1747:
  1962  0043  3000               	movlw	0
  1963  0044  00BD               	movwf	___flmul@b+3
  1964  0045  3000               	movlw	0
  1965  0046  00BC               	movwf	___flmul@b+2
  1966  0047  3000               	movlw	0
  1967  0048  00BB               	movwf	___flmul@b+1
  1968  0049  3000               	movlw	0
  1969  004A  00BA               	movwf	___flmul@b
  1970  004B                     i1l1749:
  1971  004B  0841               	movf	___flmul@a+3,w
  1972  004C  3980               	andlw	128
  1973  004D  00C2               	movwf	??___flmul
  1974  004E  0842               	movf	??___flmul,w
  1975  004F  06C7               	xorwf	___flmul@sign,f
  1976  0050                     i1l1751:
  1977  0050  0841               	movf	___flmul@a+3,w
  1978  0051  00C2               	movwf	??___flmul
  1979  0052  0742               	addwf	??___flmul,w
  1980  0053  00C3               	movwf	??___flmul+1
  1981  0054  0843               	movf	??___flmul+1,w
  1982  0055  00CC               	movwf	___flmul@aexp
  1983  0056                     i1l1753:
  1984  0056  1FC0               	btfss	___flmul@a+2,7
  1985  0057  2859               	goto	u236_21
  1986  0058  285A               	goto	u236_20
  1987  0059                     u236_21:
  1988  0059  285B               	goto	i1l1757
  1989  005A                     u236_20:
  1990  005A                     i1l1755:
  1991  005A  144C               	bsf	___flmul@aexp,0
  1992  005B                     i1l1757:
  1993  005B  084C               	movf	___flmul@aexp,w
  1994  005C  1903               	btfsc	3,2
  1995  005D  285F               	goto	u237_21
  1996  005E  2860               	goto	u237_20
  1997  005F                     u237_21:
  1998  005F  286F               	goto	i1l1765
  1999  0060                     u237_20:
  2000  0060                     i1l1759:
  2001  0060  0A4C               	incf	___flmul@aexp,w
  2002  0061  1D03               	btfss	3,2
  2003  0062  2864               	goto	u238_21
  2004  0063  2865               	goto	u238_20
  2005  0064                     u238_21:
  2006  0064  286D               	goto	i1l1763
  2007  0065                     u238_20:
  2008  0065                     i1l1761:
  2009  0065  3000               	movlw	0
  2010  0066  00C1               	movwf	___flmul@a+3
  2011  0067  3000               	movlw	0
  2012  0068  00C0               	movwf	___flmul@a+2
  2013  0069  3000               	movlw	0
  2014  006A  00BF               	movwf	___flmul@a+1
  2015  006B  3000               	movlw	0
  2016  006C  00BE               	movwf	___flmul@a
  2017  006D                     i1l1763:
  2018  006D  17C0               	bsf	___flmul@a+2,7
  2019  006E  2877               	goto	i1l1767
  2020  006F                     i1l1765:
  2021  006F  3000               	movlw	0
  2022  0070  00C1               	movwf	___flmul@a+3
  2023  0071  3000               	movlw	0
  2024  0072  00C0               	movwf	___flmul@a+2
  2025  0073  3000               	movlw	0
  2026  0074  00BF               	movwf	___flmul@a+1
  2027  0075  3000               	movlw	0
  2028  0076  00BE               	movwf	___flmul@a
  2029  0077                     i1l1767:
  2030  0077  084C               	movf	___flmul@aexp,w
  2031  0078  1903               	btfsc	3,2
  2032  0079  287B               	goto	u239_21
  2033  007A  287C               	goto	u239_20
  2034  007B                     u239_21:
  2035  007B  2881               	goto	i1l1771
  2036  007C                     u239_20:
  2037  007C                     i1l1769:
  2038  007C  084D               	movf	___flmul@bexp,w
  2039  007D  1D03               	btfss	3,2
  2040  007E  2880               	goto	u240_21
  2041  007F  2881               	goto	u240_20
  2042  0080                     u240_21:
  2043  0080  288A               	goto	i1l1775
  2044  0081                     u240_20:
  2045  0081                     i1l1771:
  2046  0081  3000               	movlw	0
  2047  0082  00BD               	movwf	?___flmul+3
  2048  0083  3000               	movlw	0
  2049  0084  00BC               	movwf	?___flmul+2
  2050  0085  3000               	movlw	0
  2051  0086  00BB               	movwf	?___flmul+1
  2052  0087  3000               	movlw	0
  2053  0088  00BA               	movwf	?___flmul
  2054  0089  2B7D               	goto	i1l562
  2055  008A                     i1l1775:
  2056  008A  083A               	movf	___flmul@b,w
  2057  008B  00C2               	movwf	??___flmul
  2058  008C  0842               	movf	??___flmul,w
  2059  008D  00F0               	movwf	__Umul8_16@multiplicand
  2060  008E  0840               	movf	___flmul@a+2,w
  2061  008F  120A  158A  24A2  120A  118A  	fcall	__Umul8_16
  2062  0094  0871               	movf	?__Umul8_16+1,w
  2063  0095  1283               	bcf	3,5	;RP0=0, select bank0
  2064  0096  1303               	bcf	3,6	;RP1=0, select bank0
  2065  0097  00D3               	movwf	___flmul@temp+1
  2066  0098  0870               	movf	?__Umul8_16,w
  2067  0099  00D2               	movwf	___flmul@temp
  2068  009A                     i1l1777:
  2069  009A  0852               	movf	___flmul@temp,w
  2070  009B  00C2               	movwf	??___flmul
  2071  009C  01C3               	clrf	??___flmul+1
  2072  009D  01C4               	clrf	??___flmul+2
  2073  009E  01C5               	clrf	??___flmul+3
  2074  009F  0845               	movf	??___flmul+3,w
  2075  00A0  00CB               	movwf	___flmul@grs+3
  2076  00A1  0844               	movf	??___flmul+2,w
  2077  00A2  00CA               	movwf	___flmul@grs+2
  2078  00A3  0843               	movf	??___flmul+1,w
  2079  00A4  00C9               	movwf	___flmul@grs+1
  2080  00A5  0842               	movf	??___flmul,w
  2081  00A6  00C8               	movwf	___flmul@grs
  2082  00A7                     i1l1779:
  2083  00A7  0853               	movf	___flmul@temp+1,w
  2084  00A8  00C2               	movwf	??___flmul
  2085  00A9  01C3               	clrf	??___flmul+1
  2086  00AA  01C4               	clrf	??___flmul+2
  2087  00AB  01C5               	clrf	??___flmul+3
  2088  00AC  0845               	movf	??___flmul+3,w
  2089  00AD  00D1               	movwf	___flmul@prod+3
  2090  00AE  0844               	movf	??___flmul+2,w
  2091  00AF  00D0               	movwf	___flmul@prod+2
  2092  00B0  0843               	movf	??___flmul+1,w
  2093  00B1  00CF               	movwf	___flmul@prod+1
  2094  00B2  0842               	movf	??___flmul,w
  2095  00B3  00CE               	movwf	___flmul@prod
  2096  00B4  083B               	movf	___flmul@b+1,w
  2097  00B5  00C2               	movwf	??___flmul
  2098  00B6  0842               	movf	??___flmul,w
  2099  00B7  00F0               	movwf	__Umul8_16@multiplicand
  2100  00B8  083F               	movf	___flmul@a+1,w
  2101  00B9  120A  158A  24A2  120A  118A  	fcall	__Umul8_16
  2102  00BE  0871               	movf	?__Umul8_16+1,w
  2103  00BF  1283               	bcf	3,5	;RP0=0, select bank0
  2104  00C0  1303               	bcf	3,6	;RP1=0, select bank0
  2105  00C1  00D3               	movwf	___flmul@temp+1
  2106  00C2  0870               	movf	?__Umul8_16,w
  2107  00C3  00D2               	movwf	___flmul@temp
  2108  00C4                     i1l1781:
  2109  00C4  0852               	movf	___flmul@temp,w
  2110  00C5  00C2               	movwf	??___flmul
  2111  00C6  01C3               	clrf	??___flmul+1
  2112  00C7  01C4               	clrf	??___flmul+2
  2113  00C8  01C5               	clrf	??___flmul+3
  2114  00C9  0842               	movf	??___flmul,w
  2115  00CA  07C8               	addwf	___flmul@grs,f
  2116  00CB  0843               	movf	??___flmul+1,w
  2117  00CC  1103               	clrz
  2118  00CD  1803               	skipnc
  2119  00CE  3E01               	addlw	1
  2120  00CF  1903               	skipnz
  2121  00D0  28D2               	goto	u241_21
  2122  00D1  07C9               	addwf	___flmul@grs+1,f
  2123  00D2                     u241_21:
  2124  00D2  0844               	movf	??___flmul+2,w
  2125  00D3  1103               	clrz
  2126  00D4  1803               	skipnc
  2127  00D5  3E01               	addlw	1
  2128  00D6  1903               	skipnz
  2129  00D7  28D9               	goto	u241_22
  2130  00D8  07CA               	addwf	___flmul@grs+2,f
  2131  00D9                     u241_22:
  2132  00D9  0845               	movf	??___flmul+3,w
  2133  00DA  1103               	clrz
  2134  00DB  1803               	skipnc
  2135  00DC  3E01               	addlw	1
  2136  00DD  1903               	skipnz
  2137  00DE  28E0               	goto	u241_23
  2138  00DF  07CB               	addwf	___flmul@grs+3,f
  2139  00E0                     u241_23:
  2140  00E0                     i1l1783:
  2141  00E0  0853               	movf	___flmul@temp+1,w
  2142  00E1  00C2               	movwf	??___flmul
  2143  00E2  01C3               	clrf	??___flmul+1
  2144  00E3  01C4               	clrf	??___flmul+2
  2145  00E4  01C5               	clrf	??___flmul+3
  2146  00E5  0842               	movf	??___flmul,w
  2147  00E6  07CE               	addwf	___flmul@prod,f
  2148  00E7  0843               	movf	??___flmul+1,w
  2149  00E8  1103               	clrz
  2150  00E9  1803               	skipnc
  2151  00EA  3E01               	addlw	1
  2152  00EB  1903               	skipnz
  2153  00EC  28EE               	goto	u242_21
  2154  00ED  07CF               	addwf	___flmul@prod+1,f
  2155  00EE                     u242_21:
  2156  00EE  0844               	movf	??___flmul+2,w
  2157  00EF  1103               	clrz
  2158  00F0  1803               	skipnc
  2159  00F1  3E01               	addlw	1
  2160  00F2  1903               	skipnz
  2161  00F3  28F5               	goto	u242_22
  2162  00F4  07D0               	addwf	___flmul@prod+2,f
  2163  00F5                     u242_22:
  2164  00F5  0845               	movf	??___flmul+3,w
  2165  00F6  1103               	clrz
  2166  00F7  1803               	skipnc
  2167  00F8  3E01               	addlw	1
  2168  00F9  1903               	skipnz
  2169  00FA  28FC               	goto	u242_23
  2170  00FB  07D1               	addwf	___flmul@prod+3,f
  2171  00FC                     u242_23:
  2172  00FC  083C               	movf	___flmul@b+2,w
  2173  00FD  00C2               	movwf	??___flmul
  2174  00FE  0842               	movf	??___flmul,w
  2175  00FF  00F0               	movwf	__Umul8_16@multiplicand
  2176  0100  083E               	movf	___flmul@a,w
  2177  0101  120A  158A  24A2  120A  118A  	fcall	__Umul8_16
  2178  0106  0871               	movf	?__Umul8_16+1,w
  2179  0107  1283               	bcf	3,5	;RP0=0, select bank0
  2180  0108  1303               	bcf	3,6	;RP1=0, select bank0
  2181  0109  00D3               	movwf	___flmul@temp+1
  2182  010A  0870               	movf	?__Umul8_16,w
  2183  010B  00D2               	movwf	___flmul@temp
  2184  010C                     i1l1785:
  2185  010C  0852               	movf	___flmul@temp,w
  2186  010D  00C2               	movwf	??___flmul
  2187  010E  01C3               	clrf	??___flmul+1
  2188  010F  01C4               	clrf	??___flmul+2
  2189  0110  01C5               	clrf	??___flmul+3
  2190  0111  0842               	movf	??___flmul,w
  2191  0112  07C8               	addwf	___flmul@grs,f
  2192  0113  0843               	movf	??___flmul+1,w
  2193  0114  1103               	clrz
  2194  0115  1803               	skipnc
  2195  0116  3E01               	addlw	1
  2196  0117  1903               	skipnz
  2197  0118  291A               	goto	u243_21
  2198  0119  07C9               	addwf	___flmul@grs+1,f
  2199  011A                     u243_21:
  2200  011A  0844               	movf	??___flmul+2,w
  2201  011B  1103               	clrz
  2202  011C  1803               	skipnc
  2203  011D  3E01               	addlw	1
  2204  011E  1903               	skipnz
  2205  011F  2921               	goto	u243_22
  2206  0120  07CA               	addwf	___flmul@grs+2,f
  2207  0121                     u243_22:
  2208  0121  0845               	movf	??___flmul+3,w
  2209  0122  1103               	clrz
  2210  0123  1803               	skipnc
  2211  0124  3E01               	addlw	1
  2212  0125  1903               	skipnz
  2213  0126  2928               	goto	u243_23
  2214  0127  07CB               	addwf	___flmul@grs+3,f
  2215  0128                     u243_23:
  2216  0128                     i1l1787:
  2217  0128  0853               	movf	___flmul@temp+1,w
  2218  0129  00C2               	movwf	??___flmul
  2219  012A  01C3               	clrf	??___flmul+1
  2220  012B  01C4               	clrf	??___flmul+2
  2221  012C  01C5               	clrf	??___flmul+3
  2222  012D  0842               	movf	??___flmul,w
  2223  012E  07CE               	addwf	___flmul@prod,f
  2224  012F  0843               	movf	??___flmul+1,w
  2225  0130  1103               	clrz
  2226  0131  1803               	skipnc
  2227  0132  3E01               	addlw	1
  2228  0133  1903               	skipnz
  2229  0134  2936               	goto	u244_21
  2230  0135  07CF               	addwf	___flmul@prod+1,f
  2231  0136                     u244_21:
  2232  0136  0844               	movf	??___flmul+2,w
  2233  0137  1103               	clrz
  2234  0138  1803               	skipnc
  2235  0139  3E01               	addlw	1
  2236  013A  1903               	skipnz
  2237  013B  293D               	goto	u244_22
  2238  013C  07D0               	addwf	___flmul@prod+2,f
  2239  013D                     u244_22:
  2240  013D  0845               	movf	??___flmul+3,w
  2241  013E  1103               	clrz
  2242  013F  1803               	skipnc
  2243  0140  3E01               	addlw	1
  2244  0141  1903               	skipnz
  2245  0142  2944               	goto	u244_23
  2246  0143  07D1               	addwf	___flmul@prod+3,f
  2247  0144                     u244_23:
  2248  0144                     i1l1789:
  2249  0144  3008               	movlw	8
  2250  0145  00C2               	movwf	??___flmul
  2251  0146                     u245_25:
  2252  0146  1003               	clrc
  2253  0147  0DC8               	rlf	___flmul@grs,f
  2254  0148  0DC9               	rlf	___flmul@grs+1,f
  2255  0149  0DCA               	rlf	___flmul@grs+2,f
  2256  014A  0DCB               	rlf	___flmul@grs+3,f
  2257  014B  0BC2               	decfsz	??___flmul,f
  2258  014C  2946               	goto	u245_25
  2259  014D                     i1l1791:
  2260  014D  083B               	movf	___flmul@b+1,w
  2261  014E  00C2               	movwf	??___flmul
  2262  014F  0842               	movf	??___flmul,w
  2263  0150  00F0               	movwf	__Umul8_16@multiplicand
  2264  0151  083E               	movf	___flmul@a,w
  2265  0152  120A  158A  24A2  120A  118A  	fcall	__Umul8_16
  2266  0157  0871               	movf	?__Umul8_16+1,w
  2267  0158  1283               	bcf	3,5	;RP0=0, select bank0
  2268  0159  1303               	bcf	3,6	;RP1=0, select bank0
  2269  015A  00D3               	movwf	___flmul@temp+1
  2270  015B  0870               	movf	?__Umul8_16,w
  2271  015C  00D2               	movwf	___flmul@temp
  2272  015D                     i1l1793:
  2273  015D  0852               	movf	___flmul@temp,w
  2274  015E  00C2               	movwf	??___flmul
  2275  015F  0853               	movf	___flmul@temp+1,w
  2276  0160  00C3               	movwf	??___flmul+1
  2277  0161  01C4               	clrf	??___flmul+2
  2278  0162  01C5               	clrf	??___flmul+3
  2279  0163  0842               	movf	??___flmul,w
  2280  0164  07C8               	addwf	___flmul@grs,f
  2281  0165  0843               	movf	??___flmul+1,w
  2282  0166  1103               	clrz
  2283  0167  1803               	skipnc
  2284  0168  3E01               	addlw	1
  2285  0169  1903               	skipnz
  2286  016A  296C               	goto	u246_21
  2287  016B  07C9               	addwf	___flmul@grs+1,f
  2288  016C                     u246_21:
  2289  016C  0844               	movf	??___flmul+2,w
  2290  016D  1103               	clrz
  2291  016E  1803               	skipnc
  2292  016F  3E01               	addlw	1
  2293  0170  1903               	skipnz
  2294  0171  2973               	goto	u246_22
  2295  0172  07CA               	addwf	___flmul@grs+2,f
  2296  0173                     u246_22:
  2297  0173  0845               	movf	??___flmul+3,w
  2298  0174  1103               	clrz
  2299  0175  1803               	skipnc
  2300  0176  3E01               	addlw	1
  2301  0177  1903               	skipnz
  2302  0178  297A               	goto	u246_23
  2303  0179  07CB               	addwf	___flmul@grs+3,f
  2304  017A                     u246_23:
  2305  017A                     i1l1795:
  2306  017A  083A               	movf	___flmul@b,w
  2307  017B  00C2               	movwf	??___flmul
  2308  017C  0842               	movf	??___flmul,w
  2309  017D  00F0               	movwf	__Umul8_16@multiplicand
  2310  017E  083F               	movf	___flmul@a+1,w
  2311  017F  120A  158A  24A2  120A  118A  	fcall	__Umul8_16
  2312  0184  0871               	movf	?__Umul8_16+1,w
  2313  0185  1283               	bcf	3,5	;RP0=0, select bank0
  2314  0186  1303               	bcf	3,6	;RP1=0, select bank0
  2315  0187  00D3               	movwf	___flmul@temp+1
  2316  0188  0870               	movf	?__Umul8_16,w
  2317  0189  00D2               	movwf	___flmul@temp
  2318  018A                     i1l1797:
  2319  018A  0852               	movf	___flmul@temp,w
  2320  018B  00C2               	movwf	??___flmul
  2321  018C  0853               	movf	___flmul@temp+1,w
  2322  018D  00C3               	movwf	??___flmul+1
  2323  018E  01C4               	clrf	??___flmul+2
  2324  018F  01C5               	clrf	??___flmul+3
  2325  0190  0842               	movf	??___flmul,w
  2326  0191  07C8               	addwf	___flmul@grs,f
  2327  0192  0843               	movf	??___flmul+1,w
  2328  0193  1103               	clrz
  2329  0194  1803               	skipnc
  2330  0195  3E01               	addlw	1
  2331  0196  1903               	skipnz
  2332  0197  2999               	goto	u247_21
  2333  0198  07C9               	addwf	___flmul@grs+1,f
  2334  0199                     u247_21:
  2335  0199  0844               	movf	??___flmul+2,w
  2336  019A  1103               	clrz
  2337  019B  1803               	skipnc
  2338  019C  3E01               	addlw	1
  2339  019D  1903               	skipnz
  2340  019E  29A0               	goto	u247_22
  2341  019F  07CA               	addwf	___flmul@grs+2,f
  2342  01A0                     u247_22:
  2343  01A0  0845               	movf	??___flmul+3,w
  2344  01A1  1103               	clrz
  2345  01A2  1803               	skipnc
  2346  01A3  3E01               	addlw	1
  2347  01A4  1903               	skipnz
  2348  01A5  29A7               	goto	u247_23
  2349  01A6  07CB               	addwf	___flmul@grs+3,f
  2350  01A7                     u247_23:
  2351  01A7                     i1l1799:
  2352  01A7  3008               	movlw	8
  2353  01A8  00C2               	movwf	??___flmul
  2354  01A9                     u248_25:
  2355  01A9  1003               	clrc
  2356  01AA  0DC8               	rlf	___flmul@grs,f
  2357  01AB  0DC9               	rlf	___flmul@grs+1,f
  2358  01AC  0DCA               	rlf	___flmul@grs+2,f
  2359  01AD  0DCB               	rlf	___flmul@grs+3,f
  2360  01AE  0BC2               	decfsz	??___flmul,f
  2361  01AF  29A9               	goto	u248_25
  2362  01B0  083A               	movf	___flmul@b,w
  2363  01B1  00C2               	movwf	??___flmul
  2364  01B2  0842               	movf	??___flmul,w
  2365  01B3  00F0               	movwf	__Umul8_16@multiplicand
  2366  01B4  083E               	movf	___flmul@a,w
  2367  01B5  120A  158A  24A2  120A  118A  	fcall	__Umul8_16
  2368  01BA  0871               	movf	?__Umul8_16+1,w
  2369  01BB  1283               	bcf	3,5	;RP0=0, select bank0
  2370  01BC  1303               	bcf	3,6	;RP1=0, select bank0
  2371  01BD  00D3               	movwf	___flmul@temp+1
  2372  01BE  0870               	movf	?__Umul8_16,w
  2373  01BF  00D2               	movwf	___flmul@temp
  2374  01C0                     i1l1801:
  2375  01C0  0852               	movf	___flmul@temp,w
  2376  01C1  00C2               	movwf	??___flmul
  2377  01C2  0853               	movf	___flmul@temp+1,w
  2378  01C3  00C3               	movwf	??___flmul+1
  2379  01C4  01C4               	clrf	??___flmul+2
  2380  01C5  01C5               	clrf	??___flmul+3
  2381  01C6  0842               	movf	??___flmul,w
  2382  01C7  07C8               	addwf	___flmul@grs,f
  2383  01C8  0843               	movf	??___flmul+1,w
  2384  01C9  1103               	clrz
  2385  01CA  1803               	skipnc
  2386  01CB  3E01               	addlw	1
  2387  01CC  1903               	skipnz
  2388  01CD  29CF               	goto	u249_21
  2389  01CE  07C9               	addwf	___flmul@grs+1,f
  2390  01CF                     u249_21:
  2391  01CF  0844               	movf	??___flmul+2,w
  2392  01D0  1103               	clrz
  2393  01D1  1803               	skipnc
  2394  01D2  3E01               	addlw	1
  2395  01D3  1903               	skipnz
  2396  01D4  29D6               	goto	u249_22
  2397  01D5  07CA               	addwf	___flmul@grs+2,f
  2398  01D6                     u249_22:
  2399  01D6  0845               	movf	??___flmul+3,w
  2400  01D7  1103               	clrz
  2401  01D8  1803               	skipnc
  2402  01D9  3E01               	addlw	1
  2403  01DA  1903               	skipnz
  2404  01DB  29DD               	goto	u249_23
  2405  01DC  07CB               	addwf	___flmul@grs+3,f
  2406  01DD                     u249_23:
  2407  01DD                     i1l1803:
  2408  01DD  083B               	movf	___flmul@b+1,w
  2409  01DE  00C2               	movwf	??___flmul
  2410  01DF  0842               	movf	??___flmul,w
  2411  01E0  00F0               	movwf	__Umul8_16@multiplicand
  2412  01E1  0840               	movf	___flmul@a+2,w
  2413  01E2  120A  158A  24A2  120A  118A  	fcall	__Umul8_16
  2414  01E7  0871               	movf	?__Umul8_16+1,w
  2415  01E8  1283               	bcf	3,5	;RP0=0, select bank0
  2416  01E9  1303               	bcf	3,6	;RP1=0, select bank0
  2417  01EA  00D3               	movwf	___flmul@temp+1
  2418  01EB  0870               	movf	?__Umul8_16,w
  2419  01EC  00D2               	movwf	___flmul@temp
  2420  01ED  0852               	movf	___flmul@temp,w
  2421  01EE  00C2               	movwf	??___flmul
  2422  01EF  0853               	movf	___flmul@temp+1,w
  2423  01F0  00C3               	movwf	??___flmul+1
  2424  01F1  01C4               	clrf	??___flmul+2
  2425  01F2  01C5               	clrf	??___flmul+3
  2426  01F3  0842               	movf	??___flmul,w
  2427  01F4  07CE               	addwf	___flmul@prod,f
  2428  01F5  0843               	movf	??___flmul+1,w
  2429  01F6  1103               	clrz
  2430  01F7  1803               	skipnc
  2431  01F8  3E01               	addlw	1
  2432  01F9  1903               	skipnz
  2433  01FA  29FC               	goto	u250_21
  2434  01FB  07CF               	addwf	___flmul@prod+1,f
  2435  01FC                     u250_21:
  2436  01FC  0844               	movf	??___flmul+2,w
  2437  01FD  1103               	clrz
  2438  01FE  1803               	skipnc
  2439  01FF  3E01               	addlw	1
  2440  0200  1903               	skipnz
  2441  0201  2A03               	goto	u250_22
  2442  0202  07D0               	addwf	___flmul@prod+2,f
  2443  0203                     u250_22:
  2444  0203  0845               	movf	??___flmul+3,w
  2445  0204  1103               	clrz
  2446  0205  1803               	skipnc
  2447  0206  3E01               	addlw	1
  2448  0207  1903               	skipnz
  2449  0208  2A0A               	goto	u250_23
  2450  0209  07D1               	addwf	___flmul@prod+3,f
  2451  020A                     u250_23:
  2452  020A                     i1l1805:
  2453  020A  083C               	movf	___flmul@b+2,w
  2454  020B  00C2               	movwf	??___flmul
  2455  020C  0842               	movf	??___flmul,w
  2456  020D  00F0               	movwf	__Umul8_16@multiplicand
  2457  020E  083F               	movf	___flmul@a+1,w
  2458  020F  120A  158A  24A2  120A  118A  	fcall	__Umul8_16
  2459  0214  0871               	movf	?__Umul8_16+1,w
  2460  0215  1283               	bcf	3,5	;RP0=0, select bank0
  2461  0216  1303               	bcf	3,6	;RP1=0, select bank0
  2462  0217  00D3               	movwf	___flmul@temp+1
  2463  0218  0870               	movf	?__Umul8_16,w
  2464  0219  00D2               	movwf	___flmul@temp
  2465  021A                     i1l1807:
  2466  021A  0852               	movf	___flmul@temp,w
  2467  021B  00C2               	movwf	??___flmul
  2468  021C  0853               	movf	___flmul@temp+1,w
  2469  021D  00C3               	movwf	??___flmul+1
  2470  021E  01C4               	clrf	??___flmul+2
  2471  021F  01C5               	clrf	??___flmul+3
  2472  0220  0842               	movf	??___flmul,w
  2473  0221  07CE               	addwf	___flmul@prod,f
  2474  0222  0843               	movf	??___flmul+1,w
  2475  0223  1103               	clrz
  2476  0224  1803               	skipnc
  2477  0225  3E01               	addlw	1
  2478  0226  1903               	skipnz
  2479  0227  2A29               	goto	u251_21
  2480  0228  07CF               	addwf	___flmul@prod+1,f
  2481  0229                     u251_21:
  2482  0229  0844               	movf	??___flmul+2,w
  2483  022A  1103               	clrz
  2484  022B  1803               	skipnc
  2485  022C  3E01               	addlw	1
  2486  022D  1903               	skipnz
  2487  022E  2A30               	goto	u251_22
  2488  022F  07D0               	addwf	___flmul@prod+2,f
  2489  0230                     u251_22:
  2490  0230  0845               	movf	??___flmul+3,w
  2491  0231  1103               	clrz
  2492  0232  1803               	skipnc
  2493  0233  3E01               	addlw	1
  2494  0234  1903               	skipnz
  2495  0235  2A37               	goto	u251_23
  2496  0236  07D1               	addwf	___flmul@prod+3,f
  2497  0237                     u251_23:
  2498  0237  083C               	movf	___flmul@b+2,w
  2499  0238  00C2               	movwf	??___flmul
  2500  0239  0842               	movf	??___flmul,w
  2501  023A  00F0               	movwf	__Umul8_16@multiplicand
  2502  023B  0840               	movf	___flmul@a+2,w
  2503  023C  120A  158A  24A2  120A  118A  	fcall	__Umul8_16
  2504  0241  0871               	movf	?__Umul8_16+1,w
  2505  0242  1283               	bcf	3,5	;RP0=0, select bank0
  2506  0243  1303               	bcf	3,6	;RP1=0, select bank0
  2507  0244  00D3               	movwf	___flmul@temp+1
  2508  0245  0870               	movf	?__Umul8_16,w
  2509  0246  00D2               	movwf	___flmul@temp
  2510  0247                     i1l1809:
  2511  0247  0852               	movf	___flmul@temp,w
  2512  0248  00C2               	movwf	??___flmul
  2513  0249  0853               	movf	___flmul@temp+1,w
  2514  024A  00C3               	movwf	??___flmul+1
  2515  024B  01C4               	clrf	??___flmul+2
  2516  024C  01C5               	clrf	??___flmul+3
  2517  024D  3008               	movlw	8
  2518  024E                     u252_25:
  2519  024E  1003               	clrc
  2520  024F  0DC2               	rlf	??___flmul,f
  2521  0250  0DC3               	rlf	??___flmul+1,f
  2522  0251  0DC4               	rlf	??___flmul+2,f
  2523  0252  0DC5               	rlf	??___flmul+3,f
  2524  0253                     u252_20:
  2525  0253  3EFF               	addlw	-1
  2526  0254  1D03               	skipz
  2527  0255  2A4E               	goto	u252_25
  2528  0256  0842               	movf	??___flmul,w
  2529  0257  07CE               	addwf	___flmul@prod,f
  2530  0258  0843               	movf	??___flmul+1,w
  2531  0259  1103               	clrz
  2532  025A  1803               	skipnc
  2533  025B  3E01               	addlw	1
  2534  025C  1903               	skipnz
  2535  025D  2A5F               	goto	u253_21
  2536  025E  07CF               	addwf	___flmul@prod+1,f
  2537  025F                     u253_21:
  2538  025F  0844               	movf	??___flmul+2,w
  2539  0260  1103               	clrz
  2540  0261  1803               	skipnc
  2541  0262  3E01               	addlw	1
  2542  0263  1903               	skipnz
  2543  0264  2A66               	goto	u253_22
  2544  0265  07D0               	addwf	___flmul@prod+2,f
  2545  0266                     u253_22:
  2546  0266  0845               	movf	??___flmul+3,w
  2547  0267  1103               	clrz
  2548  0268  1803               	skipnc
  2549  0269  3E01               	addlw	1
  2550  026A  1903               	skipnz
  2551  026B  2A6D               	goto	u253_23
  2552  026C  07D1               	addwf	___flmul@prod+3,f
  2553  026D                     u253_23:
  2554  026D                     i1l1811:
  2555  026D  0848               	movf	___flmul@grs,w
  2556  026E  00C2               	movwf	??___flmul
  2557  026F  0849               	movf	___flmul@grs+1,w
  2558  0270  00C3               	movwf	??___flmul+1
  2559  0271  084A               	movf	___flmul@grs+2,w
  2560  0272  00C4               	movwf	??___flmul+2
  2561  0273  084B               	movf	___flmul@grs+3,w
  2562  0274  00C5               	movwf	??___flmul+3
  2563  0275  3018               	movlw	24
  2564  0276                     u254_25:
  2565  0276  1003               	clrc
  2566  0277  0CC5               	rrf	??___flmul+3,f
  2567  0278  0CC4               	rrf	??___flmul+2,f
  2568  0279  0CC3               	rrf	??___flmul+1,f
  2569  027A  0CC2               	rrf	??___flmul,f
  2570  027B                     u254_20:
  2571  027B  3EFF               	addlw	-1
  2572  027C  1D03               	skipz
  2573  027D  2A76               	goto	u254_25
  2574  027E  0842               	movf	??___flmul,w
  2575  027F  07CE               	addwf	___flmul@prod,f
  2576  0280  0843               	movf	??___flmul+1,w
  2577  0281  1103               	clrz
  2578  0282  1803               	skipnc
  2579  0283  3E01               	addlw	1
  2580  0284  1903               	skipnz
  2581  0285  2A87               	goto	u255_21
  2582  0286  07CF               	addwf	___flmul@prod+1,f
  2583  0287                     u255_21:
  2584  0287  0844               	movf	??___flmul+2,w
  2585  0288  1103               	clrz
  2586  0289  1803               	skipnc
  2587  028A  3E01               	addlw	1
  2588  028B  1903               	skipnz
  2589  028C  2A8E               	goto	u255_22
  2590  028D  07D0               	addwf	___flmul@prod+2,f
  2591  028E                     u255_22:
  2592  028E  0845               	movf	??___flmul+3,w
  2593  028F  1103               	clrz
  2594  0290  1803               	skipnc
  2595  0291  3E01               	addlw	1
  2596  0292  1903               	skipnz
  2597  0293  2A95               	goto	u255_23
  2598  0294  07D1               	addwf	___flmul@prod+3,f
  2599  0295                     u255_23:
  2600  0295                     i1l1813:
  2601  0295  3008               	movlw	8
  2602  0296  00C2               	movwf	??___flmul
  2603  0297                     u256_25:
  2604  0297  1003               	clrc
  2605  0298  0DC8               	rlf	___flmul@grs,f
  2606  0299  0DC9               	rlf	___flmul@grs+1,f
  2607  029A  0DCA               	rlf	___flmul@grs+2,f
  2608  029B  0DCB               	rlf	___flmul@grs+3,f
  2609  029C  0BC2               	decfsz	??___flmul,f
  2610  029D  2A97               	goto	u256_25
  2611  029E                     i1l1815:
  2612  029E  084D               	movf	___flmul@bexp,w
  2613  029F  074C               	addwf	___flmul@aexp,w
  2614  02A0  00C2               	movwf	??___flmul
  2615  02A1  01C3               	clrf	??___flmul+1
  2616  02A2  0DC3               	rlf	??___flmul+1,f
  2617  02A3  0842               	movf	??___flmul,w
  2618  02A4  3E82               	addlw	130
  2619  02A5  00D2               	movwf	___flmul@temp
  2620  02A6  0843               	movf	??___flmul+1,w
  2621  02A7  1803               	skipnc
  2622  02A8  3E01               	addlw	1
  2623  02A9  3EFF               	addlw	255
  2624  02AA  00D3               	movwf	___flmul@temp+1
  2625  02AB  2AC9               	goto	i1l1827
  2626  02AC                     i1l1817:
  2627  02AC  3001               	movlw	1
  2628  02AD  00C2               	movwf	??___flmul
  2629  02AE                     u257_25:
  2630  02AE  1003               	clrc
  2631  02AF  0DCE               	rlf	___flmul@prod,f
  2632  02B0  0DCF               	rlf	___flmul@prod+1,f
  2633  02B1  0DD0               	rlf	___flmul@prod+2,f
  2634  02B2  0DD1               	rlf	___flmul@prod+3,f
  2635  02B3  0BC2               	decfsz	??___flmul,f
  2636  02B4  2AAE               	goto	u257_25
  2637  02B5                     i1l1819:
  2638  02B5  1FCB               	btfss	___flmul@grs+3,7
  2639  02B6  2AB8               	goto	u258_21
  2640  02B7  2AB9               	goto	u258_20
  2641  02B8                     u258_21:
  2642  02B8  2ABA               	goto	i1l1823
  2643  02B9                     u258_20:
  2644  02B9                     i1l1821:
  2645  02B9  144E               	bsf	___flmul@prod,0
  2646  02BA                     i1l1823:
  2647  02BA  3001               	movlw	1
  2648  02BB  00C2               	movwf	??___flmul
  2649  02BC                     u259_25:
  2650  02BC  1003               	clrc
  2651  02BD  0DC8               	rlf	___flmul@grs,f
  2652  02BE  0DC9               	rlf	___flmul@grs+1,f
  2653  02BF  0DCA               	rlf	___flmul@grs+2,f
  2654  02C0  0DCB               	rlf	___flmul@grs+3,f
  2655  02C1  0BC2               	decfsz	??___flmul,f
  2656  02C2  2ABC               	goto	u259_25
  2657  02C3                     i1l1825:
  2658  02C3  30FF               	movlw	255
  2659  02C4  07D2               	addwf	___flmul@temp,f
  2660  02C5  1803               	skipnc
  2661  02C6  0AD3               	incf	___flmul@temp+1,f
  2662  02C7  30FF               	movlw	255
  2663  02C8  07D3               	addwf	___flmul@temp+1,f
  2664  02C9                     i1l1827:
  2665  02C9  1FD0               	btfss	___flmul@prod+2,7
  2666  02CA  2ACC               	goto	u260_21
  2667  02CB  2ACD               	goto	u260_20
  2668  02CC                     u260_21:
  2669  02CC  2AAC               	goto	i1l1817
  2670  02CD                     u260_20:
  2671  02CD                     i1l1829:
  2672  02CD  01CC               	clrf	___flmul@aexp
  2673  02CE                     i1l1831:
  2674  02CE  1FCB               	btfss	___flmul@grs+3,7
  2675  02CF  2AD1               	goto	u261_21
  2676  02D0  2AD2               	goto	u261_20
  2677  02D1                     u261_21:
  2678  02D1  2AEE               	goto	i1l1839
  2679  02D2                     u261_20:
  2680  02D2                     i1l1833:
  2681  02D2  30FF               	movlw	255
  2682  02D3  0548               	andwf	___flmul@grs,w
  2683  02D4  00C2               	movwf	??___flmul
  2684  02D5  30FF               	movlw	255
  2685  02D6  0549               	andwf	___flmul@grs+1,w
  2686  02D7  00C3               	movwf	??___flmul+1
  2687  02D8  30FF               	movlw	255
  2688  02D9  054A               	andwf	___flmul@grs+2,w
  2689  02DA  00C4               	movwf	??___flmul+2
  2690  02DB  307F               	movlw	127
  2691  02DC  054B               	andwf	___flmul@grs+3,w
  2692  02DD  00C5               	movwf	??___flmul+3
  2693  02DE  0845               	movf	??___flmul+3,w
  2694  02DF  0444               	iorwf	??___flmul+2,w
  2695  02E0  0443               	iorwf	??___flmul+1,w
  2696  02E1  0442               	iorwf	??___flmul,w
  2697  02E2  1903               	skipnz
  2698  02E3  2AE5               	goto	u262_21
  2699  02E4  2AE6               	goto	u262_20
  2700  02E5                     u262_21:
  2701  02E5  2AE9               	goto	i1l568
  2702  02E6                     u262_20:
  2703  02E6                     i1l1835:
  2704  02E6  01CC               	clrf	___flmul@aexp
  2705  02E7  0ACC               	incf	___flmul@aexp,f
  2706  02E8  2AEE               	goto	i1l1839
  2707  02E9                     i1l568:
  2708  02E9  1C4E               	btfss	___flmul@prod,0
  2709  02EA  2AEC               	goto	u263_21
  2710  02EB  2AED               	goto	u263_20
  2711  02EC                     u263_21:
  2712  02EC  2AEE               	goto	i1l1839
  2713  02ED                     u263_20:
  2714  02ED  2AE6               	goto	i1l1835
  2715  02EE                     i1l1839:
  2716  02EE  084C               	movf	___flmul@aexp,w
  2717  02EF  1903               	btfsc	3,2
  2718  02F0  2AF2               	goto	u264_21
  2719  02F1  2AF3               	goto	u264_20
  2720  02F2                     u264_21:
  2721  02F2  2B24               	goto	i1l1849
  2722  02F3                     u264_20:
  2723  02F3                     i1l1841:
  2724  02F3  3001               	movlw	1
  2725  02F4  07CE               	addwf	___flmul@prod,f
  2726  02F5  3000               	movlw	0
  2727  02F6  1803               	skipnc
  2728  02F7  3001               	movlw	1
  2729  02F8  07CF               	addwf	___flmul@prod+1,f
  2730  02F9  3000               	movlw	0
  2731  02FA  1803               	skipnc
  2732  02FB  3001               	movlw	1
  2733  02FC  07D0               	addwf	___flmul@prod+2,f
  2734  02FD  3000               	movlw	0
  2735  02FE  1803               	skipnc
  2736  02FF  3001               	movlw	1
  2737  0300  07D1               	addwf	___flmul@prod+3,f
  2738  0301                     i1l1843:
  2739  0301  1C51               	btfss	___flmul@prod+3,0
  2740  0302  2B04               	goto	u265_21
  2741  0303  2B05               	goto	u265_20
  2742  0304                     u265_21:
  2743  0304  2B24               	goto	i1l1849
  2744  0305                     u265_20:
  2745  0305                     i1l1845:
  2746  0305  084E               	movf	___flmul@prod,w
  2747  0306  00C2               	movwf	??___flmul
  2748  0307  084F               	movf	___flmul@prod+1,w
  2749  0308  00C3               	movwf	??___flmul+1
  2750  0309  0850               	movf	___flmul@prod+2,w
  2751  030A  00C4               	movwf	??___flmul+2
  2752  030B  0851               	movf	___flmul@prod+3,w
  2753  030C  00C5               	movwf	??___flmul+3
  2754  030D  3001               	movlw	1
  2755  030E  00C6               	movwf	??___flmul+4
  2756  030F                     u266_25:
  2757  030F  0D45               	rlf	??___flmul+3,w
  2758  0310  0CC5               	rrf	??___flmul+3,f
  2759  0311  0CC4               	rrf	??___flmul+2,f
  2760  0312  0CC3               	rrf	??___flmul+1,f
  2761  0313  0CC2               	rrf	??___flmul,f
  2762  0314                     u266_20:
  2763  0314  0BC6               	decfsz	??___flmul+4,f
  2764  0315  2B0F               	goto	u266_25
  2765  0316  0845               	movf	??___flmul+3,w
  2766  0317  00D1               	movwf	___flmul@prod+3
  2767  0318  0844               	movf	??___flmul+2,w
  2768  0319  00D0               	movwf	___flmul@prod+2
  2769  031A  0843               	movf	??___flmul+1,w
  2770  031B  00CF               	movwf	___flmul@prod+1
  2771  031C  0842               	movf	??___flmul,w
  2772  031D  00CE               	movwf	___flmul@prod
  2773  031E                     i1l1847:
  2774  031E  3001               	movlw	1
  2775  031F  07D2               	addwf	___flmul@temp,f
  2776  0320  1803               	skipnc
  2777  0321  0AD3               	incf	___flmul@temp+1,f
  2778  0322  3000               	movlw	0
  2779  0323  07D3               	addwf	___flmul@temp+1,f
  2780  0324                     i1l1849:
  2781  0324  0853               	movf	___flmul@temp+1,w
  2782  0325  3A80               	xorlw	128
  2783  0326  00FF               	movwf	btemp+1
  2784  0327  3080               	movlw	128
  2785  0328  027F               	subwf	btemp+1,w
  2786  0329  1D03               	skipz
  2787  032A  2B2D               	goto	u267_25
  2788  032B  30FF               	movlw	255
  2789  032C  0252               	subwf	___flmul@temp,w
  2790  032D                     u267_25:
  2791  032D  1C03               	skipc
  2792  032E  2B30               	goto	u267_21
  2793  032F  2B31               	goto	u267_20
  2794  0330                     u267_21:
  2795  0330  2B3C               	goto	i1l1853
  2796  0331                     u267_20:
  2797  0331                     i1l1851:
  2798  0331  307F               	movlw	127
  2799  0332  1283               	bcf	3,5	;RP0=0, select bank0
  2800  0333  1303               	bcf	3,6	;RP1=0, select bank0
  2801  0334  00D1               	movwf	___flmul@prod+3
  2802  0335  3080               	movlw	128
  2803  0336  00D0               	movwf	___flmul@prod+2
  2804  0337  3000               	movlw	0
  2805  0338  00CF               	movwf	___flmul@prod+1
  2806  0339  3000               	movlw	0
  2807  033A  00CE               	movwf	___flmul@prod
  2808  033B  2B71               	goto	i1l574
  2809  033C                     i1l1853:
  2810  033C  1283               	bcf	3,5	;RP0=0, select bank0
  2811  033D  1303               	bcf	3,6	;RP1=0, select bank0
  2812  033E  0853               	movf	___flmul@temp+1,w
  2813  033F  3A80               	xorlw	128
  2814  0340  00FF               	movwf	btemp+1
  2815  0341  3080               	movlw	128
  2816  0342  027F               	subwf	btemp+1,w
  2817  0343  1D03               	skipz
  2818  0344  2B47               	goto	u268_25
  2819  0345  3001               	movlw	1
  2820  0346  0252               	subwf	___flmul@temp,w
  2821  0347                     u268_25:
  2822  0347  1803               	skipnc
  2823  0348  2B4A               	goto	u268_21
  2824  0349  2B4B               	goto	u268_20
  2825  034A                     u268_21:
  2826  034A  2B57               	goto	i1l1859
  2827  034B                     u268_20:
  2828  034B                     i1l1855:
  2829  034B  3000               	movlw	0
  2830  034C  1283               	bcf	3,5	;RP0=0, select bank0
  2831  034D  1303               	bcf	3,6	;RP1=0, select bank0
  2832  034E  00D1               	movwf	___flmul@prod+3
  2833  034F  3000               	movlw	0
  2834  0350  00D0               	movwf	___flmul@prod+2
  2835  0351  3000               	movlw	0
  2836  0352  00CF               	movwf	___flmul@prod+1
  2837  0353  3000               	movlw	0
  2838  0354  00CE               	movwf	___flmul@prod
  2839  0355                     i1l1857:
  2840  0355  01C7               	clrf	___flmul@sign
  2841  0356  2B71               	goto	i1l574
  2842  0357                     i1l1859:
  2843  0357  1283               	bcf	3,5	;RP0=0, select bank0
  2844  0358  1303               	bcf	3,6	;RP1=0, select bank0
  2845  0359  0852               	movf	___flmul@temp,w
  2846  035A  00C2               	movwf	??___flmul
  2847  035B  0842               	movf	??___flmul,w
  2848  035C  00CD               	movwf	___flmul@bexp
  2849  035D  30FF               	movlw	255
  2850  035E  05CE               	andwf	___flmul@prod,f
  2851  035F  30FF               	movlw	255
  2852  0360  05CF               	andwf	___flmul@prod+1,f
  2853  0361  307F               	movlw	127
  2854  0362  05D0               	andwf	___flmul@prod+2,f
  2855  0363  3000               	movlw	0
  2856  0364  05D1               	andwf	___flmul@prod+3,f
  2857  0365                     i1l1861:
  2858  0365  1C4D               	btfss	___flmul@bexp,0
  2859  0366  2B68               	goto	u269_21
  2860  0367  2B69               	goto	u269_20
  2861  0368                     u269_21:
  2862  0368  2B6A               	goto	i1l1865
  2863  0369                     u269_20:
  2864  0369                     i1l1863:
  2865  0369  17D0               	bsf	___flmul@prod+2,7
  2866  036A                     i1l1865:
  2867  036A  084D               	movf	___flmul@bexp,w
  2868  036B  00C2               	movwf	??___flmul
  2869  036C  1003               	clrc
  2870  036D  0C42               	rrf	??___flmul,w
  2871  036E  00C3               	movwf	??___flmul+1
  2872  036F  0843               	movf	??___flmul+1,w
  2873  0370  00D1               	movwf	___flmul@prod+3
  2874  0371                     i1l574:
  2875  0371  0847               	movf	___flmul@sign,w
  2876  0372  00C2               	movwf	??___flmul
  2877  0373  0842               	movf	??___flmul,w
  2878  0374  04D1               	iorwf	___flmul@prod+3,f
  2879  0375                     i1l1867:
  2880  0375  0851               	movf	___flmul@prod+3,w
  2881  0376  00BD               	movwf	?___flmul+3
  2882  0377  0850               	movf	___flmul@prod+2,w
  2883  0378  00BC               	movwf	?___flmul+2
  2884  0379  084F               	movf	___flmul@prod+1,w
  2885  037A  00BB               	movwf	?___flmul+1
  2886  037B  084E               	movf	___flmul@prod,w
  2887  037C  00BA               	movwf	?___flmul
  2888  037D                     i1l562:
  2889  037D  0008               	return
  2890  037E                     __end_of___flmul:
  2891                           
  2892                           	psect	text8
  2893  0CA2                     __ptext8:	
  2894 ;; *************** function __Umul8_16 *****************
  2895 ;; Defined at:
  2896 ;;		line 4 in file "C:\Program Files\Microchip\xc8\v2.35\pic\sources\c90\common\Umul8_16.c"
  2897 ;; Parameters:    Size  Location     Type
  2898 ;;  multiplier      1    wreg     unsigned char 
  2899 ;;  multiplicand    1    0[COMMON] unsigned char 
  2900 ;; Auto vars:     Size  Location     Type
  2901 ;;  multiplier      1    8[COMMON] unsigned char 
  2902 ;;  word_mpld       2    6[COMMON] unsigned int 
  2903 ;;  product         2    4[COMMON] unsigned int 
  2904 ;; Return value:  Size  Location     Type
  2905 ;;                  2    0[COMMON] unsigned int 
  2906 ;; Registers used:
  2907 ;;		wreg, status,2, status,0
  2908 ;; Tracked objects:
  2909 ;;		On entry : 0/0
  2910 ;;		On exit  : 0/0
  2911 ;;		Unchanged: 0/0
  2912 ;; Data sizes:     COMMON   BANK0   BANK1   BANK3   BANK2
  2913 ;;      Params:         2       0       0       0       0
  2914 ;;      Locals:         5       0       0       0       0
  2915 ;;      Temps:          2       0       0       0       0
  2916 ;;      Totals:         9       0       0       0       0
  2917 ;;Total ram usage:        9 bytes
  2918 ;; Hardware stack levels used: 1
  2919 ;; This function calls:
  2920 ;;		Nothing
  2921 ;; This function is called by:
  2922 ;;		___flmul
  2923 ;; This function uses a non-reentrant model
  2924 ;;
  2925                           
  2926  0CA2                     __Umul8_16:	
  2927                           ;psect for function __Umul8_16
  2928                           
  2929                           
  2930                           ;incstack = 0
  2931                           ; Regs used in __Umul8_16: [wreg+status,2+status,0]
  2932                           ;__Umul8_16@multiplier stored from wreg
  2933  0CA2  00F8               	movwf	__Umul8_16@multiplier
  2934  0CA3                     i1l1345:
  2935  0CA3  01F4               	clrf	__Umul8_16@product
  2936  0CA4  01F5               	clrf	__Umul8_16@product+1
  2937  0CA5                     i1l1347:
  2938  0CA5  0870               	movf	__Umul8_16@multiplicand,w
  2939  0CA6  00F2               	movwf	??__Umul8_16
  2940  0CA7  01F3               	clrf	??__Umul8_16+1
  2941  0CA8  0872               	movf	??__Umul8_16,w
  2942  0CA9  00F6               	movwf	__Umul8_16@word_mpld
  2943  0CAA  0873               	movf	??__Umul8_16+1,w
  2944  0CAB  00F7               	movwf	__Umul8_16@word_mpld+1
  2945  0CAC                     i1l1349:
  2946  0CAC  1C78               	btfss	__Umul8_16@multiplier,0
  2947  0CAD  2CAF               	goto	u145_21
  2948  0CAE  2CB0               	goto	u145_20
  2949  0CAF                     u145_21:
  2950  0CAF  2CB6               	goto	i1l581
  2951  0CB0                     u145_20:
  2952  0CB0                     i1l1351:
  2953  0CB0  0876               	movf	__Umul8_16@word_mpld,w
  2954  0CB1  07F4               	addwf	__Umul8_16@product,f
  2955  0CB2  1803               	skipnc
  2956  0CB3  0AF5               	incf	__Umul8_16@product+1,f
  2957  0CB4  0877               	movf	__Umul8_16@word_mpld+1,w
  2958  0CB5  07F5               	addwf	__Umul8_16@product+1,f
  2959  0CB6                     i1l581:
  2960  0CB6  3001               	movlw	1
  2961  0CB7                     u146_25:
  2962  0CB7  1003               	clrc
  2963  0CB8  0DF6               	rlf	__Umul8_16@word_mpld,f
  2964  0CB9  0DF7               	rlf	__Umul8_16@word_mpld+1,f
  2965  0CBA  3EFF               	addlw	-1
  2966  0CBB  1D03               	skipz
  2967  0CBC  2CB7               	goto	u146_25
  2968  0CBD  1003               	clrc
  2969  0CBE  0CF8               	rrf	__Umul8_16@multiplier,f
  2970  0CBF                     i1l1353:
  2971  0CBF  0878               	movf	__Umul8_16@multiplier,w
  2972  0CC0  1D03               	btfss	3,2
  2973  0CC1  2CC3               	goto	u147_21
  2974  0CC2  2CC4               	goto	u147_20
  2975  0CC3                     u147_21:
  2976  0CC3  2CAC               	goto	i1l1349
  2977  0CC4                     u147_20:
  2978  0CC4                     i1l1355:
  2979  0CC4  0875               	movf	__Umul8_16@product+1,w
  2980  0CC5  00F1               	movwf	?__Umul8_16+1
  2981  0CC6  0874               	movf	__Umul8_16@product,w
  2982  0CC7  00F0               	movwf	?__Umul8_16
  2983  0CC8                     i1l583:
  2984  0CC8  0008               	return
  2985  0CC9                     __end_of__Umul8_16:
  2986                           
  2987                           	psect	text9
  2988  0606                     __ptext9:	
  2989 ;; *************** function ___fldiv *****************
  2990 ;; Defined at:
  2991 ;;		line 8 in file "C:\Program Files\Microchip\xc8\v2.35\pic\sources\c90\common\sprcdiv.c"
  2992 ;; Parameters:    Size  Location     Type
  2993 ;;  a               4    0[BANK0 ] unsigned int 
  2994 ;;  b               4    4[BANK0 ] unsigned int 
  2995 ;; Auto vars:     Size  Location     Type
  2996 ;;  grs             4   20[BANK0 ] unsigned long 
  2997 ;;  rem             4   13[BANK0 ] unsigned long 
  2998 ;;  new_exp         2   18[BANK0 ] int 
  2999 ;;  aexp            1   25[BANK0 ] unsigned char 
  3000 ;;  bexp            1   24[BANK0 ] unsigned char 
  3001 ;;  sign            1   17[BANK0 ] unsigned char 
  3002 ;; Return value:  Size  Location     Type
  3003 ;;                  4    0[BANK0 ] unsigned char 
  3004 ;; Registers used:
  3005 ;;		wreg, status,2, status,0, btemp+1
  3006 ;; Tracked objects:
  3007 ;;		On entry : 0/0
  3008 ;;		On exit  : 0/0
  3009 ;;		Unchanged: 0/0
  3010 ;; Data sizes:     COMMON   BANK0   BANK1   BANK3   BANK2
  3011 ;;      Params:         0       8       0       0       0
  3012 ;;      Locals:         0      13       0       0       0
  3013 ;;      Temps:          0       5       0       0       0
  3014 ;;      Totals:         0      26       0       0       0
  3015 ;;Total ram usage:       26 bytes
  3016 ;; Hardware stack levels used: 1
  3017 ;; This function calls:
  3018 ;;		Nothing
  3019 ;; This function is called by:
  3020 ;;		_interpole
  3021 ;; This function uses a non-reentrant model
  3022 ;;
  3023                           
  3024  0606                     ___fldiv:	
  3025                           ;psect for function ___fldiv
  3026                           
  3027  0606                     i1l1589:	
  3028                           ;incstack = 0
  3029                           ; Regs used in ___fldiv: [wreg+status,2+status,0+btemp+1]
  3030                           
  3031  0606  1283               	bcf	3,5	;RP0=0, select bank0
  3032  0607  1303               	bcf	3,6	;RP1=0, select bank0
  3033  0608  0827               	movf	___fldiv@b+3,w
  3034  0609  3980               	andlw	128
  3035  060A  00A8               	movwf	??___fldiv
  3036  060B  0828               	movf	??___fldiv,w
  3037  060C  00B1               	movwf	___fldiv@sign
  3038  060D                     i1l1591:
  3039  060D  0827               	movf	___fldiv@b+3,w
  3040  060E  00A8               	movwf	??___fldiv
  3041  060F  0728               	addwf	??___fldiv,w
  3042  0610  00A9               	movwf	??___fldiv+1
  3043  0611  0829               	movf	??___fldiv+1,w
  3044  0612  00B8               	movwf	___fldiv@bexp
  3045  0613                     i1l1593:
  3046  0613  1FA6               	btfss	___fldiv@b+2,7
  3047  0614  2E16               	goto	u204_21
  3048  0615  2E17               	goto	u204_20
  3049  0616                     u204_21:
  3050  0616  2E18               	goto	i1l1597
  3051  0617                     u204_20:
  3052  0617                     i1l1595:
  3053  0617  1438               	bsf	___fldiv@bexp,0
  3054  0618                     i1l1597:
  3055  0618  0838               	movf	___fldiv@bexp,w
  3056  0619  1903               	btfsc	3,2
  3057  061A  2E1C               	goto	u205_21
  3058  061B  2E1D               	goto	u205_20
  3059  061C                     u205_21:
  3060  061C  2E2D               	goto	i1l1607
  3061  061D                     u205_20:
  3062  061D                     i1l1599:
  3063  061D  0A38               	incf	___fldiv@bexp,w
  3064  061E  1D03               	btfss	3,2
  3065  061F  2E21               	goto	u206_21
  3066  0620  2E22               	goto	u206_20
  3067  0621                     u206_21:
  3068  0621  2E2A               	goto	i1l1603
  3069  0622                     u206_20:
  3070  0622                     i1l1601:
  3071  0622  3000               	movlw	0
  3072  0623  00A7               	movwf	___fldiv@b+3
  3073  0624  3000               	movlw	0
  3074  0625  00A6               	movwf	___fldiv@b+2
  3075  0626  3000               	movlw	0
  3076  0627  00A5               	movwf	___fldiv@b+1
  3077  0628  3000               	movlw	0
  3078  0629  00A4               	movwf	___fldiv@b
  3079  062A                     i1l1603:
  3080  062A  17A6               	bsf	___fldiv@b+2,7
  3081  062B                     i1l1605:
  3082  062B  01A7               	clrf	___fldiv@b+3
  3083  062C  2E35               	goto	i1l1609
  3084  062D                     i1l1607:
  3085  062D  3000               	movlw	0
  3086  062E  00A7               	movwf	___fldiv@b+3
  3087  062F  3000               	movlw	0
  3088  0630  00A6               	movwf	___fldiv@b+2
  3089  0631  3000               	movlw	0
  3090  0632  00A5               	movwf	___fldiv@b+1
  3091  0633  3000               	movlw	0
  3092  0634  00A4               	movwf	___fldiv@b
  3093  0635                     i1l1609:
  3094  0635  0823               	movf	___fldiv@a+3,w
  3095  0636  3980               	andlw	128
  3096  0637  00A8               	movwf	??___fldiv
  3097  0638  0828               	movf	??___fldiv,w
  3098  0639  06B1               	xorwf	___fldiv@sign,f
  3099  063A                     i1l1611:
  3100  063A  0823               	movf	___fldiv@a+3,w
  3101  063B  00A8               	movwf	??___fldiv
  3102  063C  0728               	addwf	??___fldiv,w
  3103  063D  00A9               	movwf	??___fldiv+1
  3104  063E  0829               	movf	??___fldiv+1,w
  3105  063F  00B9               	movwf	___fldiv@aexp
  3106  0640                     i1l1613:
  3107  0640  1FA2               	btfss	___fldiv@a+2,7
  3108  0641  2E43               	goto	u207_21
  3109  0642  2E44               	goto	u207_20
  3110  0643                     u207_21:
  3111  0643  2E45               	goto	i1l1617
  3112  0644                     u207_20:
  3113  0644                     i1l1615:
  3114  0644  1439               	bsf	___fldiv@aexp,0
  3115  0645                     i1l1617:
  3116  0645  0839               	movf	___fldiv@aexp,w
  3117  0646  1903               	btfsc	3,2
  3118  0647  2E49               	goto	u208_21
  3119  0648  2E4A               	goto	u208_20
  3120  0649                     u208_21:
  3121  0649  2E5A               	goto	i1l1627
  3122  064A                     u208_20:
  3123  064A                     i1l1619:
  3124  064A  0A39               	incf	___fldiv@aexp,w
  3125  064B  1D03               	btfss	3,2
  3126  064C  2E4E               	goto	u209_21
  3127  064D  2E4F               	goto	u209_20
  3128  064E                     u209_21:
  3129  064E  2E57               	goto	i1l1623
  3130  064F                     u209_20:
  3131  064F                     i1l1621:
  3132  064F  3000               	movlw	0
  3133  0650  00A3               	movwf	___fldiv@a+3
  3134  0651  3000               	movlw	0
  3135  0652  00A2               	movwf	___fldiv@a+2
  3136  0653  3000               	movlw	0
  3137  0654  00A1               	movwf	___fldiv@a+1
  3138  0655  3000               	movlw	0
  3139  0656  00A0               	movwf	___fldiv@a
  3140  0657                     i1l1623:
  3141  0657  17A2               	bsf	___fldiv@a+2,7
  3142  0658                     i1l1625:
  3143  0658  01A3               	clrf	___fldiv@a+3
  3144  0659  2E62               	goto	i1l522
  3145  065A                     i1l1627:
  3146  065A  3000               	movlw	0
  3147  065B  00A3               	movwf	___fldiv@a+3
  3148  065C  3000               	movlw	0
  3149  065D  00A2               	movwf	___fldiv@a+2
  3150  065E  3000               	movlw	0
  3151  065F  00A1               	movwf	___fldiv@a+1
  3152  0660  3000               	movlw	0
  3153  0661  00A0               	movwf	___fldiv@a
  3154  0662                     i1l522:
  3155  0662  0823               	movf	___fldiv@a+3,w
  3156  0663  0422               	iorwf	___fldiv@a+2,w
  3157  0664  0421               	iorwf	___fldiv@a+1,w
  3158  0665  0420               	iorwf	___fldiv@a,w
  3159  0666  1D03               	skipz
  3160  0667  2E69               	goto	u210_21
  3161  0668  2E6A               	goto	u210_20
  3162  0669                     u210_21:
  3163  0669  2E83               	goto	i1l1637
  3164  066A                     u210_20:
  3165  066A                     i1l1629:
  3166  066A  3000               	movlw	0
  3167  066B  00A7               	movwf	___fldiv@b+3
  3168  066C  3000               	movlw	0
  3169  066D  00A6               	movwf	___fldiv@b+2
  3170  066E  3000               	movlw	0
  3171  066F  00A5               	movwf	___fldiv@b+1
  3172  0670  3000               	movlw	0
  3173  0671  00A4               	movwf	___fldiv@b
  3174  0672  3080               	movlw	128
  3175  0673  04A6               	iorwf	___fldiv@b+2,f
  3176  0674  307F               	movlw	127
  3177  0675  04A7               	iorwf	___fldiv@b+3,f
  3178  0676                     i1l1631:
  3179  0676  0831               	movf	___fldiv@sign,w
  3180  0677  00A8               	movwf	??___fldiv
  3181  0678  0828               	movf	??___fldiv,w
  3182  0679  04A7               	iorwf	___fldiv@b+3,f
  3183  067A                     i1l1633:
  3184  067A  0827               	movf	___fldiv@b+3,w
  3185  067B  00A3               	movwf	?___fldiv+3
  3186  067C  0826               	movf	___fldiv@b+2,w
  3187  067D  00A2               	movwf	?___fldiv+2
  3188  067E  0825               	movf	___fldiv@b+1,w
  3189  067F  00A1               	movwf	?___fldiv+1
  3190  0680  0824               	movf	___fldiv@b,w
  3191  0681  00A0               	movwf	?___fldiv
  3192  0682  2FE2               	goto	i1l524
  3193  0683                     i1l1637:
  3194  0683  0838               	movf	___fldiv@bexp,w
  3195  0684  1D03               	btfss	3,2
  3196  0685  2E87               	goto	u211_21
  3197  0686  2E88               	goto	u211_20
  3198  0687                     u211_21:
  3199  0687  2E91               	goto	i1l1643
  3200  0688                     u211_20:
  3201  0688                     i1l1639:
  3202  0688  3000               	movlw	0
  3203  0689  00A3               	movwf	?___fldiv+3
  3204  068A  3000               	movlw	0
  3205  068B  00A2               	movwf	?___fldiv+2
  3206  068C  3000               	movlw	0
  3207  068D  00A1               	movwf	?___fldiv+1
  3208  068E  3000               	movlw	0
  3209  068F  00A0               	movwf	?___fldiv
  3210  0690  2FE2               	goto	i1l524
  3211  0691                     i1l1643:
  3212  0691  0838               	movf	___fldiv@bexp,w
  3213  0692  00A8               	movwf	??___fldiv
  3214  0693  01A9               	clrf	??___fldiv+1
  3215  0694  0829               	movf	??___fldiv+1,w
  3216  0695  00AB               	movwf	??___fldiv+3
  3217  0696  0839               	movf	___fldiv@aexp,w
  3218  0697  0228               	subwf	??___fldiv,w
  3219  0698  00AA               	movwf	??___fldiv+2
  3220  0699  1C03               	skipc
  3221  069A  03AB               	decf	??___fldiv+3,f
  3222  069B  082A               	movf	??___fldiv+2,w
  3223  069C  3E7F               	addlw	127
  3224  069D  00B2               	movwf	___fldiv@new_exp
  3225  069E  082B               	movf	??___fldiv+3,w
  3226  069F  1803               	skipnc
  3227  06A0  3E01               	addlw	1
  3228  06A1  3E00               	addlw	0
  3229  06A2  00B3               	movwf	___fldiv@new_exp+1
  3230  06A3                     i1l1645:
  3231  06A3  0827               	movf	___fldiv@b+3,w
  3232  06A4  00B0               	movwf	___fldiv@rem+3
  3233  06A5  0826               	movf	___fldiv@b+2,w
  3234  06A6  00AF               	movwf	___fldiv@rem+2
  3235  06A7  0825               	movf	___fldiv@b+1,w
  3236  06A8  00AE               	movwf	___fldiv@rem+1
  3237  06A9  0824               	movf	___fldiv@b,w
  3238  06AA  00AD               	movwf	___fldiv@rem
  3239  06AB                     i1l1647:
  3240  06AB  3000               	movlw	0
  3241  06AC  00A7               	movwf	___fldiv@b+3
  3242  06AD  3000               	movlw	0
  3243  06AE  00A6               	movwf	___fldiv@b+2
  3244  06AF  3000               	movlw	0
  3245  06B0  00A5               	movwf	___fldiv@b+1
  3246  06B1  3000               	movlw	0
  3247  06B2  00A4               	movwf	___fldiv@b
  3248  06B3                     i1l1649:
  3249  06B3  3000               	movlw	0
  3250  06B4  00B7               	movwf	___fldiv@grs+3
  3251  06B5  3000               	movlw	0
  3252  06B6  00B6               	movwf	___fldiv@grs+2
  3253  06B7  3000               	movlw	0
  3254  06B8  00B5               	movwf	___fldiv@grs+1
  3255  06B9  3000               	movlw	0
  3256  06BA  00B4               	movwf	___fldiv@grs
  3257  06BB                     i1l1651:
  3258  06BB  01B9               	clrf	___fldiv@aexp
  3259  06BC  2F07               	goto	i1l1671
  3260  06BD                     i1l1653:
  3261  06BD  0839               	movf	___fldiv@aexp,w
  3262  06BE  1903               	btfsc	3,2
  3263  06BF  2EC1               	goto	u212_21
  3264  06C0  2EC2               	goto	u212_20
  3265  06C1                     u212_21:
  3266  06C1  2EE2               	goto	i1l1663
  3267  06C2                     u212_20:
  3268  06C2                     i1l1655:
  3269  06C2  3001               	movlw	1
  3270  06C3  00A8               	movwf	??___fldiv
  3271  06C4                     u213_25:
  3272  06C4  1003               	clrc
  3273  06C5  0DAD               	rlf	___fldiv@rem,f
  3274  06C6  0DAE               	rlf	___fldiv@rem+1,f
  3275  06C7  0DAF               	rlf	___fldiv@rem+2,f
  3276  06C8  0DB0               	rlf	___fldiv@rem+3,f
  3277  06C9  0BA8               	decfsz	??___fldiv,f
  3278  06CA  2EC4               	goto	u213_25
  3279  06CB  3001               	movlw	1
  3280  06CC  00A8               	movwf	??___fldiv
  3281  06CD                     u214_25:
  3282  06CD  1003               	clrc
  3283  06CE  0DA4               	rlf	___fldiv@b,f
  3284  06CF  0DA5               	rlf	___fldiv@b+1,f
  3285  06D0  0DA6               	rlf	___fldiv@b+2,f
  3286  06D1  0DA7               	rlf	___fldiv@b+3,f
  3287  06D2  0BA8               	decfsz	??___fldiv,f
  3288  06D3  2ECD               	goto	u214_25
  3289  06D4                     i1l1657:
  3290  06D4  1FB7               	btfss	___fldiv@grs+3,7
  3291  06D5  2ED7               	goto	u215_21
  3292  06D6  2ED8               	goto	u215_20
  3293  06D7                     u215_21:
  3294  06D7  2ED9               	goto	i1l1661
  3295  06D8                     u215_20:
  3296  06D8                     i1l1659:
  3297  06D8  1424               	bsf	___fldiv@b,0
  3298  06D9                     i1l1661:
  3299  06D9  3001               	movlw	1
  3300  06DA  00A8               	movwf	??___fldiv
  3301  06DB                     u216_25:
  3302  06DB  1003               	clrc
  3303  06DC  0DB4               	rlf	___fldiv@grs,f
  3304  06DD  0DB5               	rlf	___fldiv@grs+1,f
  3305  06DE  0DB6               	rlf	___fldiv@grs+2,f
  3306  06DF  0DB7               	rlf	___fldiv@grs+3,f
  3307  06E0  0BA8               	decfsz	??___fldiv,f
  3308  06E1  2EDB               	goto	u216_25
  3309  06E2                     i1l1663:
  3310  06E2  0823               	movf	___fldiv@a+3,w
  3311  06E3  0230               	subwf	___fldiv@rem+3,w
  3312  06E4  1D03               	skipz
  3313  06E5  2EF0               	goto	u217_25
  3314  06E6  0822               	movf	___fldiv@a+2,w
  3315  06E7  022F               	subwf	___fldiv@rem+2,w
  3316  06E8  1D03               	skipz
  3317  06E9  2EF0               	goto	u217_25
  3318  06EA  0821               	movf	___fldiv@a+1,w
  3319  06EB  022E               	subwf	___fldiv@rem+1,w
  3320  06EC  1D03               	skipz
  3321  06ED  2EF0               	goto	u217_25
  3322  06EE  0820               	movf	___fldiv@a,w
  3323  06EF  022D               	subwf	___fldiv@rem,w
  3324  06F0                     u217_25:
  3325  06F0  1C03               	skipc
  3326  06F1  2EF3               	goto	u217_21
  3327  06F2  2EF4               	goto	u217_20
  3328  06F3                     u217_21:
  3329  06F3  2F03               	goto	i1l1669
  3330  06F4                     u217_20:
  3331  06F4                     i1l1665:
  3332  06F4  1737               	bsf	___fldiv@grs+3,6
  3333  06F5                     i1l1667:
  3334  06F5  0820               	movf	___fldiv@a,w
  3335  06F6  02AD               	subwf	___fldiv@rem,f
  3336  06F7  0821               	movf	___fldiv@a+1,w
  3337  06F8  1C03               	skipc
  3338  06F9  0F21               	incfsz	___fldiv@a+1,w
  3339  06FA  02AE               	subwf	___fldiv@rem+1,f
  3340  06FB  0822               	movf	___fldiv@a+2,w
  3341  06FC  1C03               	skipc
  3342  06FD  0F22               	incfsz	___fldiv@a+2,w
  3343  06FE  02AF               	subwf	___fldiv@rem+2,f
  3344  06FF  0823               	movf	___fldiv@a+3,w
  3345  0700  1C03               	skipc
  3346  0701  0F23               	incfsz	___fldiv@a+3,w
  3347  0702  02B0               	subwf	___fldiv@rem+3,f
  3348  0703                     i1l1669:
  3349  0703  3001               	movlw	1
  3350  0704  00A8               	movwf	??___fldiv
  3351  0705  0828               	movf	??___fldiv,w
  3352  0706  07B9               	addwf	___fldiv@aexp,f
  3353  0707                     i1l1671:
  3354  0707  301A               	movlw	26
  3355  0708  0239               	subwf	___fldiv@aexp,w
  3356  0709  1C03               	skipc
  3357  070A  2F0C               	goto	u218_21
  3358  070B  2F0D               	goto	u218_20
  3359  070C                     u218_21:
  3360  070C  2EBD               	goto	i1l1653
  3361  070D                     u218_20:
  3362  070D                     i1l1673:
  3363  070D  0830               	movf	___fldiv@rem+3,w
  3364  070E  042F               	iorwf	___fldiv@rem+2,w
  3365  070F  042E               	iorwf	___fldiv@rem+1,w
  3366  0710  042D               	iorwf	___fldiv@rem,w
  3367  0711  1903               	skipnz
  3368  0712  2F14               	goto	u219_21
  3369  0713  2F15               	goto	u219_20
  3370  0714                     u219_21:
  3371  0714  2F34               	goto	i1l1687
  3372  0715                     u219_20:
  3373  0715                     i1l1675:
  3374  0715  1434               	bsf	___fldiv@grs,0
  3375  0716  2F34               	goto	i1l1687
  3376  0717                     i1l1677:
  3377  0717  3001               	movlw	1
  3378  0718  00A8               	movwf	??___fldiv
  3379  0719                     u220_25:
  3380  0719  1003               	clrc
  3381  071A  0DA4               	rlf	___fldiv@b,f
  3382  071B  0DA5               	rlf	___fldiv@b+1,f
  3383  071C  0DA6               	rlf	___fldiv@b+2,f
  3384  071D  0DA7               	rlf	___fldiv@b+3,f
  3385  071E  0BA8               	decfsz	??___fldiv,f
  3386  071F  2F19               	goto	u220_25
  3387  0720                     i1l1679:
  3388  0720  1FB7               	btfss	___fldiv@grs+3,7
  3389  0721  2F23               	goto	u221_21
  3390  0722  2F24               	goto	u221_20
  3391  0723                     u221_21:
  3392  0723  2F25               	goto	i1l1683
  3393  0724                     u221_20:
  3394  0724                     i1l1681:
  3395  0724  1424               	bsf	___fldiv@b,0
  3396  0725                     i1l1683:
  3397  0725  3001               	movlw	1
  3398  0726  00A8               	movwf	??___fldiv
  3399  0727                     u222_25:
  3400  0727  1003               	clrc
  3401  0728  0DB4               	rlf	___fldiv@grs,f
  3402  0729  0DB5               	rlf	___fldiv@grs+1,f
  3403  072A  0DB6               	rlf	___fldiv@grs+2,f
  3404  072B  0DB7               	rlf	___fldiv@grs+3,f
  3405  072C  0BA8               	decfsz	??___fldiv,f
  3406  072D  2F27               	goto	u222_25
  3407  072E                     i1l1685:
  3408  072E  30FF               	movlw	255
  3409  072F  07B2               	addwf	___fldiv@new_exp,f
  3410  0730  1803               	skipnc
  3411  0731  0AB3               	incf	___fldiv@new_exp+1,f
  3412  0732  30FF               	movlw	255
  3413  0733  07B3               	addwf	___fldiv@new_exp+1,f
  3414  0734                     i1l1687:
  3415  0734  1FA6               	btfss	___fldiv@b+2,7
  3416  0735  2F37               	goto	u223_21
  3417  0736  2F38               	goto	u223_20
  3418  0737                     u223_21:
  3419  0737  2F17               	goto	i1l1677
  3420  0738                     u223_20:
  3421  0738                     i1l1689:
  3422  0738  01B9               	clrf	___fldiv@aexp
  3423  0739                     i1l1691:
  3424  0739  1FB7               	btfss	___fldiv@grs+3,7
  3425  073A  2F3C               	goto	u224_21
  3426  073B  2F3D               	goto	u224_20
  3427  073C                     u224_21:
  3428  073C  2F59               	goto	i1l1699
  3429  073D                     u224_20:
  3430  073D                     i1l1693:
  3431  073D  30FF               	movlw	255
  3432  073E  0534               	andwf	___fldiv@grs,w
  3433  073F  00A8               	movwf	??___fldiv
  3434  0740  30FF               	movlw	255
  3435  0741  0535               	andwf	___fldiv@grs+1,w
  3436  0742  00A9               	movwf	??___fldiv+1
  3437  0743  30FF               	movlw	255
  3438  0744  0536               	andwf	___fldiv@grs+2,w
  3439  0745  00AA               	movwf	??___fldiv+2
  3440  0746  307F               	movlw	127
  3441  0747  0537               	andwf	___fldiv@grs+3,w
  3442  0748  00AB               	movwf	??___fldiv+3
  3443  0749  082B               	movf	??___fldiv+3,w
  3444  074A  042A               	iorwf	??___fldiv+2,w
  3445  074B  0429               	iorwf	??___fldiv+1,w
  3446  074C  0428               	iorwf	??___fldiv,w
  3447  074D  1903               	skipnz
  3448  074E  2F50               	goto	u225_21
  3449  074F  2F51               	goto	u225_20
  3450  0750                     u225_21:
  3451  0750  2F54               	goto	i1l538
  3452  0751                     u225_20:
  3453  0751                     i1l1695:
  3454  0751  01B9               	clrf	___fldiv@aexp
  3455  0752  0AB9               	incf	___fldiv@aexp,f
  3456  0753  2F59               	goto	i1l1699
  3457  0754                     i1l538:
  3458  0754  1C24               	btfss	___fldiv@b,0
  3459  0755  2F57               	goto	u226_21
  3460  0756  2F58               	goto	u226_20
  3461  0757                     u226_21:
  3462  0757  2F59               	goto	i1l1699
  3463  0758                     u226_20:
  3464  0758  2F51               	goto	i1l1695
  3465  0759                     i1l1699:
  3466  0759  0839               	movf	___fldiv@aexp,w
  3467  075A  1903               	btfsc	3,2
  3468  075B  2F5D               	goto	u227_21
  3469  075C  2F5E               	goto	u227_20
  3470  075D                     u227_21:
  3471  075D  2F8F               	goto	i1l1709
  3472  075E                     u227_20:
  3473  075E                     i1l1701:
  3474  075E  3001               	movlw	1
  3475  075F  07A4               	addwf	___fldiv@b,f
  3476  0760  3000               	movlw	0
  3477  0761  1803               	skipnc
  3478  0762  3001               	movlw	1
  3479  0763  07A5               	addwf	___fldiv@b+1,f
  3480  0764  3000               	movlw	0
  3481  0765  1803               	skipnc
  3482  0766  3001               	movlw	1
  3483  0767  07A6               	addwf	___fldiv@b+2,f
  3484  0768  3000               	movlw	0
  3485  0769  1803               	skipnc
  3486  076A  3001               	movlw	1
  3487  076B  07A7               	addwf	___fldiv@b+3,f
  3488  076C                     i1l1703:
  3489  076C  1C27               	btfss	___fldiv@b+3,0
  3490  076D  2F6F               	goto	u228_21
  3491  076E  2F70               	goto	u228_20
  3492  076F                     u228_21:
  3493  076F  2F8F               	goto	i1l1709
  3494  0770                     u228_20:
  3495  0770                     i1l1705:
  3496  0770  0824               	movf	___fldiv@b,w
  3497  0771  00A8               	movwf	??___fldiv
  3498  0772  0825               	movf	___fldiv@b+1,w
  3499  0773  00A9               	movwf	??___fldiv+1
  3500  0774  0826               	movf	___fldiv@b+2,w
  3501  0775  00AA               	movwf	??___fldiv+2
  3502  0776  0827               	movf	___fldiv@b+3,w
  3503  0777  00AB               	movwf	??___fldiv+3
  3504  0778  3001               	movlw	1
  3505  0779  00AC               	movwf	??___fldiv+4
  3506  077A                     u229_25:
  3507  077A  0D2B               	rlf	??___fldiv+3,w
  3508  077B  0CAB               	rrf	??___fldiv+3,f
  3509  077C  0CAA               	rrf	??___fldiv+2,f
  3510  077D  0CA9               	rrf	??___fldiv+1,f
  3511  077E  0CA8               	rrf	??___fldiv,f
  3512  077F                     u229_20:
  3513  077F  0BAC               	decfsz	??___fldiv+4,f
  3514  0780  2F7A               	goto	u229_25
  3515  0781  082B               	movf	??___fldiv+3,w
  3516  0782  00A7               	movwf	___fldiv@b+3
  3517  0783  082A               	movf	??___fldiv+2,w
  3518  0784  00A6               	movwf	___fldiv@b+2
  3519  0785  0829               	movf	??___fldiv+1,w
  3520  0786  00A5               	movwf	___fldiv@b+1
  3521  0787  0828               	movf	??___fldiv,w
  3522  0788  00A4               	movwf	___fldiv@b
  3523  0789                     i1l1707:
  3524  0789  3001               	movlw	1
  3525  078A  07B2               	addwf	___fldiv@new_exp,f
  3526  078B  1803               	skipnc
  3527  078C  0AB3               	incf	___fldiv@new_exp+1,f
  3528  078D  3000               	movlw	0
  3529  078E  07B3               	addwf	___fldiv@new_exp+1,f
  3530  078F                     i1l1709:
  3531  078F  0833               	movf	___fldiv@new_exp+1,w
  3532  0790  3A80               	xorlw	128
  3533  0791  00FF               	movwf	btemp+1
  3534  0792  3080               	movlw	128
  3535  0793  027F               	subwf	btemp+1,w
  3536  0794  1D03               	skipz
  3537  0795  2F98               	goto	u230_25
  3538  0796  30FF               	movlw	255
  3539  0797  0232               	subwf	___fldiv@new_exp,w
  3540  0798                     u230_25:
  3541  0798  1C03               	skipc
  3542  0799  2F9B               	goto	u230_21
  3543  079A  2F9C               	goto	u230_20
  3544  079B                     u230_21:
  3545  079B  2FAA               	goto	i1l1713
  3546  079C                     u230_20:
  3547  079C                     i1l1711:
  3548  079C  30FF               	movlw	255
  3549  079D  1283               	bcf	3,5	;RP0=0, select bank0
  3550  079E  1303               	bcf	3,6	;RP1=0, select bank0
  3551  079F  00B2               	movwf	___fldiv@new_exp
  3552  07A0  3000               	movlw	0
  3553  07A1  00B3               	movwf	___fldiv@new_exp+1
  3554  07A2  3000               	movlw	0
  3555  07A3  00A7               	movwf	___fldiv@b+3
  3556  07A4  3000               	movlw	0
  3557  07A5  00A6               	movwf	___fldiv@b+2
  3558  07A6  3000               	movlw	0
  3559  07A7  00A5               	movwf	___fldiv@b+1
  3560  07A8  3000               	movlw	0
  3561  07A9  00A4               	movwf	___fldiv@b
  3562  07AA                     i1l1713:
  3563  07AA  1283               	bcf	3,5	;RP0=0, select bank0
  3564  07AB  1303               	bcf	3,6	;RP1=0, select bank0
  3565  07AC  0833               	movf	___fldiv@new_exp+1,w
  3566  07AD  3A80               	xorlw	128
  3567  07AE  00FF               	movwf	btemp+1
  3568  07AF  3080               	movlw	128
  3569  07B0  027F               	subwf	btemp+1,w
  3570  07B1  1D03               	skipz
  3571  07B2  2FB5               	goto	u231_25
  3572  07B3  3001               	movlw	1
  3573  07B4  0232               	subwf	___fldiv@new_exp,w
  3574  07B5                     u231_25:
  3575  07B5  1803               	skipnc
  3576  07B6  2FB8               	goto	u231_21
  3577  07B7  2FB9               	goto	u231_20
  3578  07B8                     u231_21:
  3579  07B8  2FC6               	goto	i1l544
  3580  07B9                     u231_20:
  3581  07B9                     i1l1715:
  3582  07B9  1283               	bcf	3,5	;RP0=0, select bank0
  3583  07BA  1303               	bcf	3,6	;RP1=0, select bank0
  3584  07BB  01B2               	clrf	___fldiv@new_exp
  3585  07BC  01B3               	clrf	___fldiv@new_exp+1
  3586  07BD                     i1l1717:
  3587  07BD  3000               	movlw	0
  3588  07BE  00A7               	movwf	___fldiv@b+3
  3589  07BF  3000               	movlw	0
  3590  07C0  00A6               	movwf	___fldiv@b+2
  3591  07C1  3000               	movlw	0
  3592  07C2  00A5               	movwf	___fldiv@b+1
  3593  07C3  3000               	movlw	0
  3594  07C4  00A4               	movwf	___fldiv@b
  3595  07C5                     i1l1719:
  3596  07C5  01B1               	clrf	___fldiv@sign
  3597  07C6                     i1l544:
  3598  07C6  1283               	bcf	3,5	;RP0=0, select bank0
  3599  07C7  1303               	bcf	3,6	;RP1=0, select bank0
  3600  07C8  0832               	movf	___fldiv@new_exp,w
  3601  07C9  00A8               	movwf	??___fldiv
  3602  07CA  0828               	movf	??___fldiv,w
  3603  07CB  00B8               	movwf	___fldiv@bexp
  3604  07CC                     i1l1721:
  3605  07CC  1C38               	btfss	___fldiv@bexp,0
  3606  07CD  2FCF               	goto	u232_21
  3607  07CE  2FD0               	goto	u232_20
  3608  07CF                     u232_21:
  3609  07CF  2FD2               	goto	i1l1725
  3610  07D0                     u232_20:
  3611  07D0                     i1l1723:
  3612  07D0  17A6               	bsf	___fldiv@b+2,7
  3613  07D1  2FD6               	goto	i1l546
  3614  07D2                     i1l1725:
  3615  07D2  307F               	movlw	127
  3616  07D3  00A8               	movwf	??___fldiv
  3617  07D4  0828               	movf	??___fldiv,w
  3618  07D5  05A6               	andwf	___fldiv@b+2,f
  3619  07D6                     i1l546:
  3620  07D6  0838               	movf	___fldiv@bexp,w
  3621  07D7  00A8               	movwf	??___fldiv
  3622  07D8  1003               	clrc
  3623  07D9  0C28               	rrf	??___fldiv,w
  3624  07DA  00A9               	movwf	??___fldiv+1
  3625  07DB  0829               	movf	??___fldiv+1,w
  3626  07DC  00A7               	movwf	___fldiv@b+3
  3627  07DD  0831               	movf	___fldiv@sign,w
  3628  07DE  00A8               	movwf	??___fldiv
  3629  07DF  0828               	movf	??___fldiv,w
  3630  07E0  04A7               	iorwf	___fldiv@b+3,f
  3631  07E1  2E7A               	goto	i1l1633
  3632  07E2                     i1l524:
  3633  07E2  0008               	return
  3634  07E3                     __end_of___fldiv:
  3635                           
  3636                           	psect	text10
  3637  037E                     __ptext10:	
  3638 ;; *************** function ___fladd *****************
  3639 ;; Defined at:
  3640 ;;		line 10 in file "C:\Program Files\Microchip\xc8\v2.35\pic\sources\c90\common\sprcadd.c"
  3641 ;; Parameters:    Size  Location     Type
  3642 ;;  b               4   52[BANK0 ] unsigned char 
  3643 ;;  a               4   56[BANK0 ] unsigned char 
  3644 ;; Auto vars:     Size  Location     Type
  3645 ;;  grs             1   71[BANK0 ] unsigned char 
  3646 ;;  bexp            1   70[BANK0 ] unsigned char 
  3647 ;;  aexp            1   69[BANK0 ] unsigned char 
  3648 ;;  signs           1   68[BANK0 ] unsigned char 
  3649 ;; Return value:  Size  Location     Type
  3650 ;;                  4   52[BANK0 ] unsigned char 
  3651 ;; Registers used:
  3652 ;;		wreg, status,2, status,0, btemp+1
  3653 ;; Tracked objects:
  3654 ;;		On entry : 0/0
  3655 ;;		On exit  : 0/0
  3656 ;;		Unchanged: 0/0
  3657 ;; Data sizes:     COMMON   BANK0   BANK1   BANK3   BANK2
  3658 ;;      Params:         0       8       0       0       0
  3659 ;;      Locals:         0       4       0       0       0
  3660 ;;      Temps:          0       8       0       0       0
  3661 ;;      Totals:         0      20       0       0       0
  3662 ;;Total ram usage:       20 bytes
  3663 ;; Hardware stack levels used: 1
  3664 ;; This function calls:
  3665 ;;		Nothing
  3666 ;; This function is called by:
  3667 ;;		_interpole
  3668 ;; This function uses a non-reentrant model
  3669 ;;
  3670                           
  3671  037E                     ___fladd:	
  3672                           ;psect for function ___fladd
  3673                           
  3674  037E                     i1l1395:	
  3675                           ;incstack = 0
  3676                           ; Regs used in ___fladd: [wreg+status,2+status,0+btemp+1]
  3677                           
  3678  037E  1283               	bcf	3,5	;RP0=0, select bank0
  3679  037F  1303               	bcf	3,6	;RP1=0, select bank0
  3680  0380  0857               	movf	___fladd@b+3,w
  3681  0381  3980               	andlw	128
  3682  0382  00DC               	movwf	??___fladd
  3683  0383  085C               	movf	??___fladd,w
  3684  0384  00E4               	movwf	___fladd@signs
  3685  0385                     i1l1397:
  3686  0385  0857               	movf	___fladd@b+3,w
  3687  0386  00DC               	movwf	??___fladd
  3688  0387  075C               	addwf	??___fladd,w
  3689  0388  00DD               	movwf	??___fladd+1
  3690  0389  085D               	movf	??___fladd+1,w
  3691  038A  00E6               	movwf	___fladd@bexp
  3692  038B                     i1l1399:
  3693  038B  1FD6               	btfss	___fladd@b+2,7
  3694  038C  2B8E               	goto	u158_21
  3695  038D  2B8F               	goto	u158_20
  3696  038E                     u158_21:
  3697  038E  2B90               	goto	i1l1403
  3698  038F                     u158_20:
  3699  038F                     i1l1401:
  3700  038F  1466               	bsf	___fladd@bexp,0
  3701  0390                     i1l1403:
  3702  0390  0866               	movf	___fladd@bexp,w
  3703  0391  1903               	btfsc	3,2
  3704  0392  2B94               	goto	u159_21
  3705  0393  2B95               	goto	u159_20
  3706  0394                     u159_21:
  3707  0394  2BA5               	goto	i1l1413
  3708  0395                     u159_20:
  3709  0395                     i1l1405:
  3710  0395  0A66               	incf	___fladd@bexp,w
  3711  0396  1D03               	btfss	3,2
  3712  0397  2B99               	goto	u160_21
  3713  0398  2B9A               	goto	u160_20
  3714  0399                     u160_21:
  3715  0399  2BA2               	goto	i1l1409
  3716  039A                     u160_20:
  3717  039A                     i1l1407:
  3718  039A  3000               	movlw	0
  3719  039B  00D7               	movwf	___fladd@b+3
  3720  039C  3000               	movlw	0
  3721  039D  00D6               	movwf	___fladd@b+2
  3722  039E  3000               	movlw	0
  3723  039F  00D5               	movwf	___fladd@b+1
  3724  03A0  3000               	movlw	0
  3725  03A1  00D4               	movwf	___fladd@b
  3726  03A2                     i1l1409:
  3727  03A2  17D6               	bsf	___fladd@b+2,7
  3728  03A3                     i1l1411:
  3729  03A3  01D7               	clrf	___fladd@b+3
  3730  03A4  2BAD               	goto	i1l1415
  3731  03A5                     i1l1413:
  3732  03A5  3000               	movlw	0
  3733  03A6  00D7               	movwf	___fladd@b+3
  3734  03A7  3000               	movlw	0
  3735  03A8  00D6               	movwf	___fladd@b+2
  3736  03A9  3000               	movlw	0
  3737  03AA  00D5               	movwf	___fladd@b+1
  3738  03AB  3000               	movlw	0
  3739  03AC  00D4               	movwf	___fladd@b
  3740  03AD                     i1l1415:
  3741  03AD  085B               	movf	___fladd@a+3,w
  3742  03AE  3980               	andlw	128
  3743  03AF  00DC               	movwf	??___fladd
  3744  03B0  085C               	movf	??___fladd,w
  3745  03B1  00E5               	movwf	___fladd@aexp
  3746  03B2                     i1l1417:
  3747  03B2  0865               	movf	___fladd@aexp,w
  3748  03B3  0664               	xorwf	___fladd@signs,w
  3749  03B4  1903               	skipnz
  3750  03B5  2BB7               	goto	u161_21
  3751  03B6  2BB8               	goto	u161_20
  3752  03B7                     u161_21:
  3753  03B7  2BB9               	goto	i1l1421
  3754  03B8                     u161_20:
  3755  03B8                     i1l1419:
  3756  03B8  1764               	bsf	___fladd@signs,6
  3757  03B9                     i1l1421:
  3758  03B9  085B               	movf	___fladd@a+3,w
  3759  03BA  00DC               	movwf	??___fladd
  3760  03BB  075C               	addwf	??___fladd,w
  3761  03BC  00DD               	movwf	??___fladd+1
  3762  03BD  085D               	movf	??___fladd+1,w
  3763  03BE  00E5               	movwf	___fladd@aexp
  3764  03BF                     i1l1423:
  3765  03BF  1FDA               	btfss	___fladd@a+2,7
  3766  03C0  2BC2               	goto	u162_21
  3767  03C1  2BC3               	goto	u162_20
  3768  03C2                     u162_21:
  3769  03C2  2BC4               	goto	i1l1427
  3770  03C3                     u162_20:
  3771  03C3                     i1l1425:
  3772  03C3  1465               	bsf	___fladd@aexp,0
  3773  03C4                     i1l1427:
  3774  03C4  0865               	movf	___fladd@aexp,w
  3775  03C5  1903               	btfsc	3,2
  3776  03C6  2BC8               	goto	u163_21
  3777  03C7  2BC9               	goto	u163_20
  3778  03C8                     u163_21:
  3779  03C8  2BD9               	goto	i1l1437
  3780  03C9                     u163_20:
  3781  03C9                     i1l1429:
  3782  03C9  0A65               	incf	___fladd@aexp,w
  3783  03CA  1D03               	btfss	3,2
  3784  03CB  2BCD               	goto	u164_21
  3785  03CC  2BCE               	goto	u164_20
  3786  03CD                     u164_21:
  3787  03CD  2BD6               	goto	i1l1433
  3788  03CE                     u164_20:
  3789  03CE                     i1l1431:
  3790  03CE  3000               	movlw	0
  3791  03CF  00DB               	movwf	___fladd@a+3
  3792  03D0  3000               	movlw	0
  3793  03D1  00DA               	movwf	___fladd@a+2
  3794  03D2  3000               	movlw	0
  3795  03D3  00D9               	movwf	___fladd@a+1
  3796  03D4  3000               	movlw	0
  3797  03D5  00D8               	movwf	___fladd@a
  3798  03D6                     i1l1433:
  3799  03D6  17DA               	bsf	___fladd@a+2,7
  3800  03D7                     i1l1435:
  3801  03D7  01DB               	clrf	___fladd@a+3
  3802  03D8  2BE1               	goto	i1l466
  3803  03D9                     i1l1437:
  3804  03D9  3000               	movlw	0
  3805  03DA  00DB               	movwf	___fladd@a+3
  3806  03DB  3000               	movlw	0
  3807  03DC  00DA               	movwf	___fladd@a+2
  3808  03DD  3000               	movlw	0
  3809  03DE  00D9               	movwf	___fladd@a+1
  3810  03DF  3000               	movlw	0
  3811  03E0  00D8               	movwf	___fladd@a
  3812  03E1                     i1l466:
  3813  03E1  0866               	movf	___fladd@bexp,w
  3814  03E2  0265               	subwf	___fladd@aexp,w
  3815  03E3  1803               	skipnc
  3816  03E4  2BE6               	goto	u165_21
  3817  03E5  2BE7               	goto	u165_20
  3818  03E6                     u165_21:
  3819  03E6  2C2B               	goto	i1l1473
  3820  03E7                     u165_20:
  3821  03E7                     i1l1439:
  3822  03E7  1F64               	btfss	___fladd@signs,6
  3823  03E8  2BEA               	goto	u166_21
  3824  03E9  2BEB               	goto	u166_20
  3825  03EA                     u166_21:
  3826  03EA  2BEF               	goto	i1l1443
  3827  03EB                     u166_20:
  3828  03EB                     i1l1441:
  3829  03EB  3080               	movlw	128
  3830  03EC  00DC               	movwf	??___fladd
  3831  03ED  085C               	movf	??___fladd,w
  3832  03EE  06E4               	xorwf	___fladd@signs,f
  3833  03EF                     i1l1443:
  3834  03EF  0866               	movf	___fladd@bexp,w
  3835  03F0  00DC               	movwf	??___fladd
  3836  03F1  085C               	movf	??___fladd,w
  3837  03F2  00E7               	movwf	___fladd@grs
  3838  03F3                     i1l1445:
  3839  03F3  0865               	movf	___fladd@aexp,w
  3840  03F4  00DC               	movwf	??___fladd
  3841  03F5  085C               	movf	??___fladd,w
  3842  03F6  00E6               	movwf	___fladd@bexp
  3843  03F7                     i1l1447:
  3844  03F7  0867               	movf	___fladd@grs,w
  3845  03F8  00DC               	movwf	??___fladd
  3846  03F9  085C               	movf	??___fladd,w
  3847  03FA  00E5               	movwf	___fladd@aexp
  3848  03FB                     i1l1449:
  3849  03FB  0854               	movf	___fladd@b,w
  3850  03FC  00DC               	movwf	??___fladd
  3851  03FD  085C               	movf	??___fladd,w
  3852  03FE  00E7               	movwf	___fladd@grs
  3853  03FF                     i1l1451:
  3854  03FF  0858               	movf	___fladd@a,w
  3855  0400  00DC               	movwf	??___fladd
  3856  0401  085C               	movf	??___fladd,w
  3857  0402  00D4               	movwf	___fladd@b
  3858  0403                     i1l1453:
  3859  0403  0867               	movf	___fladd@grs,w
  3860  0404  00DC               	movwf	??___fladd
  3861  0405  085C               	movf	??___fladd,w
  3862  0406  00D8               	movwf	___fladd@a
  3863  0407                     i1l1455:
  3864  0407  0855               	movf	___fladd@b+1,w
  3865  0408  00DC               	movwf	??___fladd
  3866  0409  085C               	movf	??___fladd,w
  3867  040A  00E7               	movwf	___fladd@grs
  3868  040B                     i1l1457:
  3869  040B  0859               	movf	___fladd@a+1,w
  3870  040C  00DC               	movwf	??___fladd
  3871  040D  085C               	movf	??___fladd,w
  3872  040E  00D5               	movwf	___fladd@b+1
  3873  040F                     i1l1459:
  3874  040F  0867               	movf	___fladd@grs,w
  3875  0410  00DC               	movwf	??___fladd
  3876  0411  085C               	movf	??___fladd,w
  3877  0412  00D9               	movwf	___fladd@a+1
  3878  0413                     i1l1461:
  3879  0413  0856               	movf	___fladd@b+2,w
  3880  0414  00DC               	movwf	??___fladd
  3881  0415  085C               	movf	??___fladd,w
  3882  0416  00E7               	movwf	___fladd@grs
  3883  0417                     i1l1463:
  3884  0417  085A               	movf	___fladd@a+2,w
  3885  0418  00DC               	movwf	??___fladd
  3886  0419  085C               	movf	??___fladd,w
  3887  041A  00D6               	movwf	___fladd@b+2
  3888  041B                     i1l1465:
  3889  041B  0867               	movf	___fladd@grs,w
  3890  041C  00DC               	movwf	??___fladd
  3891  041D  085C               	movf	??___fladd,w
  3892  041E  00DA               	movwf	___fladd@a+2
  3893  041F                     i1l1467:
  3894  041F  0857               	movf	___fladd@b+3,w
  3895  0420  00DC               	movwf	??___fladd
  3896  0421  085C               	movf	??___fladd,w
  3897  0422  00E7               	movwf	___fladd@grs
  3898  0423                     i1l1469:
  3899  0423  085B               	movf	___fladd@a+3,w
  3900  0424  00DC               	movwf	??___fladd
  3901  0425  085C               	movf	??___fladd,w
  3902  0426  00D7               	movwf	___fladd@b+3
  3903  0427                     i1l1471:
  3904  0427  0867               	movf	___fladd@grs,w
  3905  0428  00DC               	movwf	??___fladd
  3906  0429  085C               	movf	??___fladd,w
  3907  042A  00DB               	movwf	___fladd@a+3
  3908  042B                     i1l1473:
  3909  042B  01E7               	clrf	___fladd@grs
  3910  042C                     i1l1475:
  3911  042C  0865               	movf	___fladd@aexp,w
  3912  042D  00DC               	movwf	??___fladd
  3913  042E  01DD               	clrf	??___fladd+1
  3914  042F  085D               	movf	??___fladd+1,w
  3915  0430  00DF               	movwf	??___fladd+3
  3916  0431  0866               	movf	___fladd@bexp,w
  3917  0432  025C               	subwf	??___fladd,w
  3918  0433  00DE               	movwf	??___fladd+2
  3919  0434  1C03               	skipc
  3920  0435  03DF               	decf	??___fladd+3,f
  3921  0436  085F               	movf	??___fladd+3,w
  3922  0437  3A80               	xorlw	128
  3923  0438  00FF               	movwf	btemp+1
  3924  0439  3080               	movlw	128
  3925  043A  027F               	subwf	btemp+1,w
  3926  043B  1D03               	skipz
  3927  043C  2C3F               	goto	u167_25
  3928  043D  301A               	movlw	26
  3929  043E  025E               	subwf	??___fladd+2,w
  3930  043F                     u167_25:
  3931  043F  1C03               	skipc
  3932  0440  2C42               	goto	u167_21
  3933  0441  2C43               	goto	u167_20
  3934  0442                     u167_21:
  3935  0442  2C80               	goto	i1l1491
  3936  0443                     u167_20:
  3937  0443                     i1l1477:
  3938  0443  1283               	bcf	3,5	;RP0=0, select bank0
  3939  0444  1303               	bcf	3,6	;RP1=0, select bank0
  3940  0445  0857               	movf	___fladd@b+3,w
  3941  0446  0456               	iorwf	___fladd@b+2,w
  3942  0447  0455               	iorwf	___fladd@b+1,w
  3943  0448  0454               	iorwf	___fladd@b,w
  3944  0449  1D03               	skipz
  3945  044A  2C4C               	goto	u168_21
  3946  044B  2C4E               	goto	u168_20
  3947  044C                     u168_21:
  3948  044C  3001               	movlw	1
  3949  044D  2C4F               	goto	u169_20
  3950  044E                     u168_20:
  3951  044E  3000               	movlw	0
  3952  044F                     u169_20:
  3953  044F  00DC               	movwf	??___fladd
  3954  0450  085C               	movf	??___fladd,w
  3955  0451  00E7               	movwf	___fladd@grs
  3956  0452  3000               	movlw	0
  3957  0453  00D7               	movwf	___fladd@b+3
  3958  0454  3000               	movlw	0
  3959  0455  00D6               	movwf	___fladd@b+2
  3960  0456  3000               	movlw	0
  3961  0457  00D5               	movwf	___fladd@b+1
  3962  0458  3000               	movlw	0
  3963  0459  00D4               	movwf	___fladd@b
  3964  045A  0865               	movf	___fladd@aexp,w
  3965  045B  00DC               	movwf	??___fladd
  3966  045C  085C               	movf	??___fladd,w
  3967  045D  00E6               	movwf	___fladd@bexp
  3968  045E  2C88               	goto	i1l470
  3969  045F                     i1l472:
  3970  045F  1C67               	btfss	___fladd@grs,0
  3971  0460  2C62               	goto	u170_21
  3972  0461  2C63               	goto	u170_20
  3973  0462                     u170_21:
  3974  0462  2C6C               	goto	i1l1481
  3975  0463                     u170_20:
  3976  0463                     i1l1479:
  3977  0463  0867               	movf	___fladd@grs,w
  3978  0464  00DC               	movwf	??___fladd
  3979  0465  1003               	clrc
  3980  0466  0C5C               	rrf	??___fladd,w
  3981  0467  3801               	iorlw	1
  3982  0468  00DD               	movwf	??___fladd+1
  3983  0469  085D               	movf	??___fladd+1,w
  3984  046A  00E7               	movwf	___fladd@grs
  3985  046B  2C6E               	goto	i1l1483
  3986  046C                     i1l1481:
  3987  046C  1003               	clrc
  3988  046D  0CE7               	rrf	___fladd@grs,f
  3989  046E                     i1l1483:
  3990  046E  1C54               	btfss	___fladd@b,0
  3991  046F  2C71               	goto	u171_21
  3992  0470  2C72               	goto	u171_20
  3993  0471                     u171_21:
  3994  0471  2C73               	goto	i1l1487
  3995  0472                     u171_20:
  3996  0472                     i1l1485:
  3997  0472  17E7               	bsf	___fladd@grs,7
  3998  0473                     i1l1487:
  3999  0473  3001               	movlw	1
  4000  0474  00DC               	movwf	??___fladd
  4001  0475                     u172_25:
  4002  0475  0D57               	rlf	___fladd@b+3,w
  4003  0476  0CD7               	rrf	___fladd@b+3,f
  4004  0477  0CD6               	rrf	___fladd@b+2,f
  4005  0478  0CD5               	rrf	___fladd@b+1,f
  4006  0479  0CD4               	rrf	___fladd@b,f
  4007  047A  0BDC               	decfsz	??___fladd& (0+127),f
  4008  047B  2C75               	goto	u172_25
  4009  047C                     i1l1489:
  4010  047C  3001               	movlw	1
  4011  047D  00DC               	movwf	??___fladd
  4012  047E  085C               	movf	??___fladd,w
  4013  047F  07E6               	addwf	___fladd@bexp,f
  4014  0480                     i1l1491:
  4015  0480  1283               	bcf	3,5	;RP0=0, select bank0
  4016  0481  1303               	bcf	3,6	;RP1=0, select bank0
  4017  0482  0865               	movf	___fladd@aexp,w
  4018  0483  0266               	subwf	___fladd@bexp,w
  4019  0484  1C03               	skipc
  4020  0485  2C87               	goto	u173_21
  4021  0486  2C88               	goto	u173_20
  4022  0487                     u173_21:
  4023  0487  2C5F               	goto	i1l472
  4024  0488                     u173_20:
  4025  0488                     i1l470:
  4026  0488  1B64               	btfsc	___fladd@signs,6
  4027  0489  2C8B               	goto	u174_21
  4028  048A  2C8C               	goto	u174_20
  4029  048B                     u174_21:
  4030  048B  2CD7               	goto	i1l1517
  4031  048C                     u174_20:
  4032  048C                     i1l1493:
  4033  048C  0866               	movf	___fladd@bexp,w
  4034  048D  1D03               	btfss	3,2
  4035  048E  2C90               	goto	u175_21
  4036  048F  2C91               	goto	u175_20
  4037  0490                     u175_21:
  4038  0490  2C9A               	goto	i1l1499
  4039  0491                     u175_20:
  4040  0491                     i1l1495:
  4041  0491  3000               	movlw	0
  4042  0492  00D7               	movwf	?___fladd+3
  4043  0493  3000               	movlw	0
  4044  0494  00D6               	movwf	?___fladd+2
  4045  0495  3000               	movlw	0
  4046  0496  00D5               	movwf	?___fladd+1
  4047  0497  3000               	movlw	0
  4048  0498  00D4               	movwf	?___fladd
  4049  0499  2E05               	goto	i1l479
  4050  049A                     i1l1499:
  4051  049A  0858               	movf	___fladd@a,w
  4052  049B  07D4               	addwf	___fladd@b,f
  4053  049C  0859               	movf	___fladd@a+1,w
  4054  049D  1103               	clrz
  4055  049E  1803               	skipnc
  4056  049F  3E01               	addlw	1
  4057  04A0  1903               	skipnz
  4058  04A1  2CA3               	goto	u176_21
  4059  04A2  07D5               	addwf	___fladd@b+1,f
  4060  04A3                     u176_21:
  4061  04A3  085A               	movf	___fladd@a+2,w
  4062  04A4  1103               	clrz
  4063  04A5  1803               	skipnc
  4064  04A6  3E01               	addlw	1
  4065  04A7  1903               	skipnz
  4066  04A8  2CAA               	goto	u176_22
  4067  04A9  07D6               	addwf	___fladd@b+2,f
  4068  04AA                     u176_22:
  4069  04AA  085B               	movf	___fladd@a+3,w
  4070  04AB  1103               	clrz
  4071  04AC  1803               	skipnc
  4072  04AD  3E01               	addlw	1
  4073  04AE  1903               	skipnz
  4074  04AF  2CB1               	goto	u176_23
  4075  04B0  07D7               	addwf	___fladd@b+3,f
  4076  04B1                     u176_23:
  4077  04B1                     i1l1501:
  4078  04B1  1C57               	btfss	___fladd@b+3,0
  4079  04B2  2CB4               	goto	u177_21
  4080  04B3  2CB5               	goto	u177_20
  4081  04B4                     u177_21:
  4082  04B4  2D8B               	goto	i1l1551
  4083  04B5                     u177_20:
  4084  04B5                     i1l1503:
  4085  04B5  1C67               	btfss	___fladd@grs,0
  4086  04B6  2CB8               	goto	u178_21
  4087  04B7  2CB9               	goto	u178_20
  4088  04B8                     u178_21:
  4089  04B8  2CC2               	goto	i1l1507
  4090  04B9                     u178_20:
  4091  04B9                     i1l1505:
  4092  04B9  0867               	movf	___fladd@grs,w
  4093  04BA  00DC               	movwf	??___fladd
  4094  04BB  1003               	clrc
  4095  04BC  0C5C               	rrf	??___fladd,w
  4096  04BD  3801               	iorlw	1
  4097  04BE  00DD               	movwf	??___fladd+1
  4098  04BF  085D               	movf	??___fladd+1,w
  4099  04C0  00E7               	movwf	___fladd@grs
  4100  04C1  2CC4               	goto	i1l1509
  4101  04C2                     i1l1507:
  4102  04C2  1003               	clrc
  4103  04C3  0CE7               	rrf	___fladd@grs,f
  4104  04C4                     i1l1509:
  4105  04C4  1C54               	btfss	___fladd@b,0
  4106  04C5  2CC7               	goto	u179_21
  4107  04C6  2CC8               	goto	u179_20
  4108  04C7                     u179_21:
  4109  04C7  2CC9               	goto	i1l1513
  4110  04C8                     u179_20:
  4111  04C8                     i1l1511:
  4112  04C8  17E7               	bsf	___fladd@grs,7
  4113  04C9                     i1l1513:
  4114  04C9  3001               	movlw	1
  4115  04CA  00DC               	movwf	??___fladd
  4116  04CB                     u180_25:
  4117  04CB  0D57               	rlf	___fladd@b+3,w
  4118  04CC  0CD7               	rrf	___fladd@b+3,f
  4119  04CD  0CD6               	rrf	___fladd@b+2,f
  4120  04CE  0CD5               	rrf	___fladd@b+1,f
  4121  04CF  0CD4               	rrf	___fladd@b,f
  4122  04D0  0BDC               	decfsz	??___fladd& (0+127),f
  4123  04D1  2CCB               	goto	u180_25
  4124  04D2                     i1l1515:
  4125  04D2  3001               	movlw	1
  4126  04D3  00DC               	movwf	??___fladd
  4127  04D4  085C               	movf	??___fladd,w
  4128  04D5  07E6               	addwf	___fladd@bexp,f
  4129  04D6  2D8B               	goto	i1l1551
  4130  04D7                     i1l1517:
  4131  04D7  0857               	movf	___fladd@b+3,w
  4132  04D8  3A80               	xorlw	128
  4133  04D9  00FF               	movwf	btemp+1
  4134  04DA  085B               	movf	___fladd@a+3,w
  4135  04DB  3A80               	xorlw	128
  4136  04DC  027F               	subwf	btemp+1,w
  4137  04DD  1D03               	skipz
  4138  04DE  2CE9               	goto	u181_23
  4139  04DF  085A               	movf	___fladd@a+2,w
  4140  04E0  0256               	subwf	___fladd@b+2,w
  4141  04E1  1D03               	skipz
  4142  04E2  2CE9               	goto	u181_23
  4143  04E3  0859               	movf	___fladd@a+1,w
  4144  04E4  0255               	subwf	___fladd@b+1,w
  4145  04E5  1D03               	skipz
  4146  04E6  2CE9               	goto	u181_23
  4147  04E7  0858               	movf	___fladd@a,w
  4148  04E8  0254               	subwf	___fladd@b,w
  4149  04E9                     u181_23:
  4150  04E9  1803               	skipnc
  4151  04EA  2CEC               	goto	u181_21
  4152  04EB  2CED               	goto	u181_20
  4153  04EC                     u181_21:
  4154  04EC  2D45               	goto	i1l1527
  4155  04ED                     u181_20:
  4156  04ED                     i1l1519:
  4157  04ED  30FF               	movlw	255
  4158  04EE  00DC               	movwf	??___fladd
  4159  04EF  30FF               	movlw	255
  4160  04F0  00DD               	movwf	??___fladd+1
  4161  04F1  30FF               	movlw	255
  4162  04F2  00DE               	movwf	??___fladd+2
  4163  04F3  30FF               	movlw	255
  4164  04F4  00DF               	movwf	??___fladd+3
  4165  04F5  0858               	movf	___fladd@a,w
  4166  04F6  00E0               	movwf	??___fladd+4
  4167  04F7  0859               	movf	___fladd@a+1,w
  4168  04F8  00E1               	movwf	??___fladd+5
  4169  04F9  085A               	movf	___fladd@a+2,w
  4170  04FA  00E2               	movwf	??___fladd+6
  4171  04FB  085B               	movf	___fladd@a+3,w
  4172  04FC  00E3               	movwf	??___fladd+7
  4173  04FD  0854               	movf	___fladd@b,w
  4174  04FE  02E0               	subwf	??___fladd+4,f
  4175  04FF  0855               	movf	___fladd@b+1,w
  4176  0500  1C03               	skipc
  4177  0501  0F55               	incfsz	___fladd@b+1,w
  4178  0502  2D04               	goto	u182_21
  4179  0503  2D05               	goto	u182_22
  4180  0504                     u182_21:
  4181  0504  02E1               	subwf	??___fladd+5,f
  4182  0505                     u182_22:
  4183  0505  0856               	movf	___fladd@b+2,w
  4184  0506  1C03               	skipc
  4185  0507  0F56               	incfsz	___fladd@b+2,w
  4186  0508  2D0A               	goto	u182_23
  4187  0509  2D0B               	goto	u182_24
  4188  050A                     u182_23:
  4189  050A  02E2               	subwf	??___fladd+6,f
  4190  050B                     u182_24:
  4191  050B  0857               	movf	___fladd@b+3,w
  4192  050C  1C03               	skipc
  4193  050D  0F57               	incfsz	___fladd@b+3,w
  4194  050E  2D10               	goto	u182_25
  4195  050F  2D11               	goto	u182_26
  4196  0510                     u182_25:
  4197  0510  02E3               	subwf	??___fladd+7,f
  4198  0511                     u182_26:
  4199  0511  0860               	movf	??___fladd+4,w
  4200  0512  07DC               	addwf	??___fladd,f
  4201  0513  0861               	movf	??___fladd+5,w
  4202  0514  1803               	skipnc
  4203  0515  0F61               	incfsz	??___fladd+5,w
  4204  0516  2D18               	goto	u183_20
  4205  0517  2D19               	goto	u183_21
  4206  0518                     u183_20:
  4207  0518  07DD               	addwf	??___fladd+1,f
  4208  0519                     u183_21:
  4209  0519  0862               	movf	??___fladd+6,w
  4210  051A  1803               	skipnc
  4211  051B  0F62               	incfsz	??___fladd+6,w
  4212  051C  2D1E               	goto	u183_22
  4213  051D  2D1F               	goto	u183_23
  4214  051E                     u183_22:
  4215  051E  07DE               	addwf	??___fladd+2,f
  4216  051F                     u183_23:
  4217  051F  0863               	movf	??___fladd+7,w
  4218  0520  1803               	skipnc
  4219  0521  0A63               	incf	??___fladd+7,w
  4220  0522  07DF               	addwf	??___fladd+3,f
  4221  0523  085F               	movf	??___fladd+3,w
  4222  0524  00D7               	movwf	___fladd@b+3
  4223  0525  085E               	movf	??___fladd+2,w
  4224  0526  00D6               	movwf	___fladd@b+2
  4225  0527  085D               	movf	??___fladd+1,w
  4226  0528  00D5               	movwf	___fladd@b+1
  4227  0529  085C               	movf	??___fladd,w
  4228  052A  00D4               	movwf	___fladd@b
  4229  052B                     i1l1521:
  4230  052B  3080               	movlw	128
  4231  052C  00DC               	movwf	??___fladd
  4232  052D  085C               	movf	??___fladd,w
  4233  052E  06E4               	xorwf	___fladd@signs,f
  4234  052F  09E7               	comf	___fladd@grs,f
  4235  0530  0AE7               	incf	___fladd@grs,f
  4236  0531                     i1l1523:
  4237  0531  0867               	movf	___fladd@grs,w
  4238  0532  1D03               	btfss	3,2
  4239  0533  2D35               	goto	u184_21
  4240  0534  2D36               	goto	u184_20
  4241  0535                     u184_21:
  4242  0535  2D53               	goto	i1l487
  4243  0536                     u184_20:
  4244  0536                     i1l1525:
  4245  0536  3001               	movlw	1
  4246  0537  07D4               	addwf	___fladd@b,f
  4247  0538  3000               	movlw	0
  4248  0539  1803               	skipnc
  4249  053A  3001               	movlw	1
  4250  053B  07D5               	addwf	___fladd@b+1,f
  4251  053C  3000               	movlw	0
  4252  053D  1803               	skipnc
  4253  053E  3001               	movlw	1
  4254  053F  07D6               	addwf	___fladd@b+2,f
  4255  0540  3000               	movlw	0
  4256  0541  1803               	skipnc
  4257  0542  3001               	movlw	1
  4258  0543  07D7               	addwf	___fladd@b+3,f
  4259  0544  2D53               	goto	i1l487
  4260  0545                     i1l1527:
  4261  0545  0858               	movf	___fladd@a,w
  4262  0546  02D4               	subwf	___fladd@b,f
  4263  0547  0859               	movf	___fladd@a+1,w
  4264  0548  1C03               	skipc
  4265  0549  0F59               	incfsz	___fladd@a+1,w
  4266  054A  02D5               	subwf	___fladd@b+1,f
  4267  054B  085A               	movf	___fladd@a+2,w
  4268  054C  1C03               	skipc
  4269  054D  0F5A               	incfsz	___fladd@a+2,w
  4270  054E  02D6               	subwf	___fladd@b+2,f
  4271  054F  085B               	movf	___fladd@a+3,w
  4272  0550  1C03               	skipc
  4273  0551  0F5B               	incfsz	___fladd@a+3,w
  4274  0552  02D7               	subwf	___fladd@b+3,f
  4275  0553                     i1l487:
  4276  0553  0857               	movf	___fladd@b+3,w
  4277  0554  0456               	iorwf	___fladd@b+2,w
  4278  0555  0455               	iorwf	___fladd@b+1,w
  4279  0556  0454               	iorwf	___fladd@b,w
  4280  0557  1D03               	skipz
  4281  0558  2D5A               	goto	u185_21
  4282  0559  2D5B               	goto	u185_20
  4283  055A                     u185_21:
  4284  055A  2D87               	goto	i1l1549
  4285  055B                     u185_20:
  4286  055B                     i1l1529:
  4287  055B  0867               	movf	___fladd@grs,w
  4288  055C  1D03               	btfss	3,2
  4289  055D  2D5F               	goto	u186_21
  4290  055E  2D60               	goto	u186_20
  4291  055F                     u186_21:
  4292  055F  2D87               	goto	i1l1549
  4293  0560                     u186_20:
  4294  0560                     i1l1531:
  4295  0560  3000               	movlw	0
  4296  0561  00D7               	movwf	?___fladd+3
  4297  0562  3000               	movlw	0
  4298  0563  00D6               	movwf	?___fladd+2
  4299  0564  3000               	movlw	0
  4300  0565  00D5               	movwf	?___fladd+1
  4301  0566  3000               	movlw	0
  4302  0567  00D4               	movwf	?___fladd
  4303  0568  2E05               	goto	i1l479
  4304  0569                     i1l1535:
  4305  0569  3001               	movlw	1
  4306  056A  00DC               	movwf	??___fladd
  4307  056B                     u187_25:
  4308  056B  1003               	clrc
  4309  056C  0DD4               	rlf	___fladd@b,f
  4310  056D  0DD5               	rlf	___fladd@b+1,f
  4311  056E  0DD6               	rlf	___fladd@b+2,f
  4312  056F  0DD7               	rlf	___fladd@b+3,f
  4313  0570  0BDC               	decfsz	??___fladd,f
  4314  0571  2D6B               	goto	u187_25
  4315  0572                     i1l1537:
  4316  0572  1FE7               	btfss	___fladd@grs,7
  4317  0573  2D75               	goto	u188_21
  4318  0574  2D76               	goto	u188_20
  4319  0575                     u188_21:
  4320  0575  2D77               	goto	i1l491
  4321  0576                     u188_20:
  4322  0576                     i1l1539:
  4323  0576  1454               	bsf	___fladd@b,0
  4324  0577                     i1l491:
  4325  0577  1C67               	btfss	___fladd@grs,0
  4326  0578  2D7A               	goto	u189_21
  4327  0579  2D7B               	goto	u189_20
  4328  057A                     u189_21:
  4329  057A  2D7E               	goto	i1l1543
  4330  057B                     u189_20:
  4331  057B                     i1l1541:
  4332  057B  1403               	setc
  4333  057C  0DE7               	rlf	___fladd@grs,f
  4334  057D  2D80               	goto	i1l1545
  4335  057E                     i1l1543:
  4336  057E  1003               	clrc
  4337  057F  0DE7               	rlf	___fladd@grs,f
  4338  0580                     i1l1545:
  4339  0580  0866               	movf	___fladd@bexp,w
  4340  0581  1903               	btfsc	3,2
  4341  0582  2D84               	goto	u190_21
  4342  0583  2D85               	goto	u190_20
  4343  0584                     u190_21:
  4344  0584  2D87               	goto	i1l1549
  4345  0585                     u190_20:
  4346  0585                     i1l1547:
  4347  0585  3001               	movlw	1
  4348  0586  02E6               	subwf	___fladd@bexp,f
  4349  0587                     i1l1549:
  4350  0587  1FD6               	btfss	___fladd@b+2,7
  4351  0588  2D8A               	goto	u191_21
  4352  0589  2D8B               	goto	u191_20
  4353  058A                     u191_21:
  4354  058A  2D69               	goto	i1l1535
  4355  058B                     u191_20:
  4356  058B                     i1l1551:
  4357  058B  01E5               	clrf	___fladd@aexp
  4358  058C                     i1l1553:
  4359  058C  1FE7               	btfss	___fladd@grs,7
  4360  058D  2D8F               	goto	u192_21
  4361  058E  2D90               	goto	u192_20
  4362  058F                     u192_21:
  4363  058F  2D9E               	goto	i1l1561
  4364  0590                     u192_20:
  4365  0590                     i1l1555:
  4366  0590  0867               	movf	___fladd@grs,w
  4367  0591  397F               	andlw	127
  4368  0592  1903               	btfsc	3,2
  4369  0593  2D95               	goto	u193_21
  4370  0594  2D96               	goto	u193_20
  4371  0595                     u193_21:
  4372  0595  2D99               	goto	i1l497
  4373  0596                     u193_20:
  4374  0596                     i1l1557:
  4375  0596  01E5               	clrf	___fladd@aexp
  4376  0597  0AE5               	incf	___fladd@aexp,f
  4377  0598  2D9E               	goto	i1l1561
  4378  0599                     i1l497:
  4379  0599  1C54               	btfss	___fladd@b,0
  4380  059A  2D9C               	goto	u194_21
  4381  059B  2D9D               	goto	u194_20
  4382  059C                     u194_21:
  4383  059C  2D9E               	goto	i1l1561
  4384  059D                     u194_20:
  4385  059D  2D96               	goto	i1l1557
  4386  059E                     i1l1561:
  4387  059E  0865               	movf	___fladd@aexp,w
  4388  059F  1903               	btfsc	3,2
  4389  05A0  2DA2               	goto	u195_21
  4390  05A1  2DA3               	goto	u195_20
  4391  05A2                     u195_21:
  4392  05A2  2DD7               	goto	i1l500
  4393  05A3                     u195_20:
  4394  05A3                     i1l1563:
  4395  05A3  3001               	movlw	1
  4396  05A4  07D4               	addwf	___fladd@b,f
  4397  05A5  3000               	movlw	0
  4398  05A6  1803               	skipnc
  4399  05A7  3001               	movlw	1
  4400  05A8  07D5               	addwf	___fladd@b+1,f
  4401  05A9  3000               	movlw	0
  4402  05AA  1803               	skipnc
  4403  05AB  3001               	movlw	1
  4404  05AC  07D6               	addwf	___fladd@b+2,f
  4405  05AD  3000               	movlw	0
  4406  05AE  1803               	skipnc
  4407  05AF  3001               	movlw	1
  4408  05B0  07D7               	addwf	___fladd@b+3,f
  4409  05B1                     i1l1565:
  4410  05B1  1C57               	btfss	___fladd@b+3,0
  4411  05B2  2DB4               	goto	u196_21
  4412  05B3  2DB5               	goto	u196_20
  4413  05B4                     u196_21:
  4414  05B4  2DD7               	goto	i1l500
  4415  05B5                     u196_20:
  4416  05B5                     i1l1567:
  4417  05B5  0854               	movf	___fladd@b,w
  4418  05B6  00DC               	movwf	??___fladd
  4419  05B7  0855               	movf	___fladd@b+1,w
  4420  05B8  00DD               	movwf	??___fladd+1
  4421  05B9  0856               	movf	___fladd@b+2,w
  4422  05BA  00DE               	movwf	??___fladd+2
  4423  05BB  0857               	movf	___fladd@b+3,w
  4424  05BC  00DF               	movwf	??___fladd+3
  4425  05BD  3001               	movlw	1
  4426  05BE  00E0               	movwf	??___fladd+4
  4427  05BF                     u197_25:
  4428  05BF  0D5F               	rlf	??___fladd+3,w
  4429  05C0  0CDF               	rrf	??___fladd+3,f
  4430  05C1  0CDE               	rrf	??___fladd+2,f
  4431  05C2  0CDD               	rrf	??___fladd+1,f
  4432  05C3  0CDC               	rrf	??___fladd,f
  4433  05C4                     u197_20:
  4434  05C4  0BE0               	decfsz	??___fladd+4,f
  4435  05C5  2DBF               	goto	u197_25
  4436  05C6  085F               	movf	??___fladd+3,w
  4437  05C7  00D7               	movwf	___fladd@b+3
  4438  05C8  085E               	movf	??___fladd+2,w
  4439  05C9  00D6               	movwf	___fladd@b+2
  4440  05CA  085D               	movf	??___fladd+1,w
  4441  05CB  00D5               	movwf	___fladd@b+1
  4442  05CC  085C               	movf	??___fladd,w
  4443  05CD  00D4               	movwf	___fladd@b
  4444  05CE  0A66               	incf	___fladd@bexp,w
  4445  05CF  1903               	btfsc	3,2
  4446  05D0  2DD2               	goto	u198_21
  4447  05D1  2DD3               	goto	u198_20
  4448  05D2                     u198_21:
  4449  05D2  2DD7               	goto	i1l500
  4450  05D3                     u198_20:
  4451  05D3                     i1l1569:
  4452  05D3  3001               	movlw	1
  4453  05D4  00DC               	movwf	??___fladd
  4454  05D5  085C               	movf	??___fladd,w
  4455  05D6  07E6               	addwf	___fladd@bexp,f
  4456  05D7                     i1l500:
  4457  05D7  0A66               	incf	___fladd@bexp,w
  4458  05D8  1903               	btfsc	3,2
  4459  05D9  2DDB               	goto	u199_21
  4460  05DA  2DDC               	goto	u199_20
  4461  05DB                     u199_21:
  4462  05DB  2DE1               	goto	i1l1573
  4463  05DC                     u199_20:
  4464  05DC                     i1l1571:
  4465  05DC  0866               	movf	___fladd@bexp,w
  4466  05DD  1D03               	btfss	3,2
  4467  05DE  2DE0               	goto	u200_21
  4468  05DF  2DE1               	goto	u200_20
  4469  05E0                     u200_21:
  4470  05E0  2DEF               	goto	i1l1579
  4471  05E1                     u200_20:
  4472  05E1                     i1l1573:
  4473  05E1  3000               	movlw	0
  4474  05E2  00D7               	movwf	___fladd@b+3
  4475  05E3  3000               	movlw	0
  4476  05E4  00D6               	movwf	___fladd@b+2
  4477  05E5  3000               	movlw	0
  4478  05E6  00D5               	movwf	___fladd@b+1
  4479  05E7  3000               	movlw	0
  4480  05E8  00D4               	movwf	___fladd@b
  4481  05E9                     i1l1575:
  4482  05E9  0866               	movf	___fladd@bexp,w
  4483  05EA  1D03               	btfss	3,2
  4484  05EB  2DED               	goto	u201_21
  4485  05EC  2DEE               	goto	u201_20
  4486  05ED                     u201_21:
  4487  05ED  2DEF               	goto	i1l1579
  4488  05EE                     u201_20:
  4489  05EE                     i1l1577:
  4490  05EE  01E4               	clrf	___fladd@signs
  4491  05EF                     i1l1579:
  4492  05EF  1C66               	btfss	___fladd@bexp,0
  4493  05F0  2DF2               	goto	u202_21
  4494  05F1  2DF3               	goto	u202_20
  4495  05F2                     u202_21:
  4496  05F2  2DF5               	goto	i1l1583
  4497  05F3                     u202_20:
  4498  05F3                     i1l1581:
  4499  05F3  17D6               	bsf	___fladd@b+2,7
  4500  05F4  2DF9               	goto	i1l508
  4501  05F5                     i1l1583:
  4502  05F5  307F               	movlw	127
  4503  05F6  00DC               	movwf	??___fladd
  4504  05F7  085C               	movf	??___fladd,w
  4505  05F8  05D6               	andwf	___fladd@b+2,f
  4506  05F9                     i1l508:
  4507  05F9  0866               	movf	___fladd@bexp,w
  4508  05FA  00DC               	movwf	??___fladd
  4509  05FB  1003               	clrc
  4510  05FC  0C5C               	rrf	??___fladd,w
  4511  05FD  00DD               	movwf	??___fladd+1
  4512  05FE  085D               	movf	??___fladd+1,w
  4513  05FF  00D7               	movwf	___fladd@b+3
  4514  0600                     i1l1585:
  4515  0600  1FE4               	btfss	___fladd@signs,7
  4516  0601  2E03               	goto	u203_21
  4517  0602  2E04               	goto	u203_20
  4518  0603                     u203_21:
  4519  0603  2E05               	goto	i1l509
  4520  0604                     u203_20:
  4521  0604                     i1l1587:
  4522  0604  17D7               	bsf	___fladd@b+3,7
  4523  0605                     i1l509:
  4524  0605                     i1l479:
  4525  0605  0008               	return
  4526  0606                     __end_of___fladd:
  4527  007E                     btemp	set	126	;btemp
  4528  007E                     wtemp0	set	126
  4529                           
  4530                           	psect	idloc
  4531                           
  4532                           ;Config register IDLOC0 @ 0x2000
  4533                           ;	unspecified, using default values
  4534  2000                     	org	8192
  4535  2000  3FFF               	dw	16383
  4536                           
  4537                           ;Config register IDLOC1 @ 0x2001
  4538                           ;	unspecified, using default values
  4539  2001                     	org	8193
  4540  2001  3FFF               	dw	16383
  4541                           
  4542                           ;Config register IDLOC2 @ 0x2002
  4543                           ;	unspecified, using default values
  4544  2002                     	org	8194
  4545  2002  3FFF               	dw	16383
  4546                           
  4547                           ;Config register IDLOC3 @ 0x2003
  4548                           ;	unspecified, using default values
  4549  2003                     	org	8195
  4550  2003  3FFF               	dw	16383
  4551                           
  4552                           	psect	config
  4553                           
  4554                           ;Config register CONFIG1 @ 0x2007
  4555                           ;	Oscillator Selection bits
  4556                           ;	FOSC = INTRC_NOCLKOUT, INTOSCIO oscillator: I/O function on RA6/OSC2/CLKOUT pin, I/O f
      +                          unction on RA7/OSC1/CLKIN
  4557                           ;	Watchdog Timer Enable bit
  4558                           ;	WDTE = OFF, WDT disabled and can be enabled by SWDTEN bit of the WDTCON register
  4559                           ;	Power-up Timer Enable bit
  4560                           ;	PWRTE = OFF, PWRT disabled
  4561                           ;	RE3/MCLR pin function select bit
  4562                           ;	MCLRE = OFF, RE3/MCLR pin function is digital input, MCLR internally tied to VDD
  4563                           ;	Code Protection bit
  4564                           ;	CP = OFF, Program memory code protection is disabled
  4565                           ;	Data Code Protection bit
  4566                           ;	CPD = OFF, Data memory code protection is disabled
  4567                           ;	Brown Out Reset Selection bits
  4568                           ;	BOREN = OFF, BOR disabled
  4569                           ;	Internal External Switchover bit
  4570                           ;	IESO = OFF, Internal/External Switchover mode is disabled
  4571                           ;	Fail-Safe Clock Monitor Enabled bit
  4572                           ;	FCMEN = OFF, Fail-Safe Clock Monitor is disabled
  4573                           ;	Low Voltage Programming Enable bit
  4574                           ;	LVP = OFF, RB3 pin has digital I/O, HV on MCLR must be used for programming
  4575                           ;	In-Circuit Debugger Mode bit
  4576                           ;	DEBUG = 0x1, unprogrammed default
  4577  2007                     	org	8199
  4578  2007  20D4               	dw	8404
  4579                           
  4580                           ;Config register CONFIG2 @ 0x2008
  4581                           ;	Brown-out Reset Selection bit
  4582                           ;	BOR4V = BOR40V, Brown-out Reset set to 4.0V
  4583                           ;	Flash Program Memory Self Write Enable bits
  4584                           ;	WRT = OFF, Write protection off
  4585  2008                     	org	8200
  4586  2008  3FFF               	dw	16383

Data Sizes:
    Strings     0
    Constant    0
    Data        0
    BSS         4
    Persistent  0
    Stack       0

Auto Spaces:
    Space          Size  Autos    Used
    COMMON           14     14      14
    BANK0            80     80      80
    BANK1            80     20      24
    BANK3            96      0       0
    BANK2            96      0       0

Pointer List with Targets:

    None.

Critical Paths under _main in COMMON

    None.

Critical Paths under _isr in COMMON

    _interpole->___xxtofl
    ___fltol->___xxtofl
    ___flmul->___xxtofl
    ___fldiv->___xxtofl
    ___fladd->___xxtofl

Critical Paths under _main in BANK0

    None.

Critical Paths under _isr in BANK0

    _isr->_move_servo
    _move_servo->_interpole
    _interpole->___fltol
    ___fltol->___fladd
    ___flmul->___fldiv
    ___fladd->___flmul

Critical Paths under _main in BANK1

    None.

Critical Paths under _isr in BANK1

    _isr->_move_servo
    _move_servo->_interpole
    _interpole->___fltol

Critical Paths under _main in BANK3

    None.

Critical Paths under _isr in BANK3

    None.

Critical Paths under _main in BANK2

    None.

Critical Paths under _isr in BANK2

    None.

Call Graph Tables:

 ---------------------------------------------------------------------------------
 (Depth) Function   	        Calls       Base Space   Used Autos Params    Refs
 ---------------------------------------------------------------------------------
 (0) _main                                                 0     0      0       0
                              _setup
 ---------------------------------------------------------------------------------
 (1) _setup                                                0     0      0       0
 ---------------------------------------------------------------------------------
 Estimated maximum stack depth 1
 ---------------------------------------------------------------------------------
 (Depth) Function   	        Calls       Base Space   Used Autos Params    Refs
 ---------------------------------------------------------------------------------
 (2) _isr                                                  5     5      0    7931
                                             15 BANK1      5     5      0
                         _move_servo
 ---------------------------------------------------------------------------------
 (3) _move_servo                                           5     3      2    7931
                                             79 BANK0      1     1      0
                                             11 BANK1      4     2      2
                          _interpole
 ---------------------------------------------------------------------------------
 (4) _interpole                                            7     1      6    7645
                                             78 BANK0      1     1      0
                                              5 BANK1      6     0      6
                            ___fladd
                            ___fldiv
                            ___flmul
                            ___fltol
                           ___xxtofl
 ---------------------------------------------------------------------------------
 (5) ___xxtofl                                            14    10      4     626
                                              0 COMMON    14    10      4
 ---------------------------------------------------------------------------------
 (5) ___fltol                                             11     7      4     305
                                             72 BANK0      6     2      4
                                              0 BANK1      5     5      0
                            ___fladd (ARG)
                            ___fldiv (ARG)
                            ___flmul (ARG)
                           ___xxtofl (ARG)
 ---------------------------------------------------------------------------------
 (5) ___flmul                                             26    18      8    2417
                                             26 BANK0     26    18      8
                          __Umul8_16
                            ___fldiv (ARG)
                           ___xxtofl (ARG)
 ---------------------------------------------------------------------------------
 (6) __Umul8_16                                            9     7      2     799
                                              0 COMMON     9     7      2
 ---------------------------------------------------------------------------------
 (5) ___fldiv                                             26    18      8    1273
                                              0 BANK0     26    18      8
                           ___xxtofl (ARG)
 ---------------------------------------------------------------------------------
 (5) ___fladd                                             20    12      8    2262
                                             52 BANK0     20    12      8
                            ___fldiv (ARG)
                            ___flmul (ARG)
                           ___xxtofl (ARG)
 ---------------------------------------------------------------------------------
 Estimated maximum stack depth 6
 ---------------------------------------------------------------------------------

 Call Graph Graphs:

 _main (ROOT)
   _setup

 _isr (ROOT)
   _move_servo
     _interpole
       ___fladd
         ___fldiv (ARG)
           ___xxtofl (ARG)
         ___flmul (ARG)
           __Umul8_16
           ___fldiv (ARG)
           ___xxtofl (ARG)
         ___xxtofl (ARG)
       ___fldiv
       ___flmul
       ___fltol
         ___fladd (ARG)
         ___fldiv (ARG)
         ___flmul (ARG)
         ___xxtofl (ARG)
       ___xxtofl

 Address spaces:
Name               Size   Autos  Total    Cost      Usage
BITCOMMON            E      0       0       0        0.0%
EEDATA             100      0       0       0        0.0%
NULL                 0      0       0       0        0.0%
CODE                 0      0       0       0        0.0%
COMMON               E      E       E       1      100.0%
BITSFR0              0      0       0       1        0.0%
SFR0                 0      0       0       1        0.0%
BITSFR1              0      0       0       2        0.0%
SFR1                 0      0       0       2        0.0%
STACK                0      0       0       2        0.0%
ABS                  0      0      76       3        0.0%
BITBANK0            50      0       0       4        0.0%
BITSFR3              0      0       0       4        0.0%
SFR3                 0      0       0       4        0.0%
BANK0               50     50      50       5      100.0%
BITSFR2              0      0       0       5        0.0%
SFR2                 0      0       0       5        0.0%
BITBANK1            50      0       0       6        0.0%
BANK1               50     14      18       7       30.0%
BITBANK3            60      0       0       8        0.0%
BANK3               60      0       0       9        0.0%
BITBANK2            60      0       0      10        0.0%
BANK2               60      0       0      11        0.0%
DATA                 0      0      76      12        0.0%


Microchip Technology PIC Macro Assembler V2.35 build 20211206165544 
Symbol Table                                                                                   Thu May 26 23:45:13 2022

           ___fldiv@aexp 0039             ___fldiv@bexp 0038             ___fldiv@sign 0031  
            _SSPSTATbits 0094                       l70 07E8                       l71 07E8  
                     l76 0D48                       l78 0D4C                       l79 0D63  
    __Umul8_16@word_mpld 0076                      _PR2 0092                      _isr 0CC9  
           ___flmul@aexp 004C             ___flmul@bexp 004D             ___flmul@sign 0047  
           ___flmul@temp 0052             ___flmul@prod 004E             ___fltol@exp1 006D  
                   l2009 07E3                     l1941 0D14                     l1951 0D2A  
                   l1943 0D17                     l1961 0D3C                     l1953 0D2B  
                   l1945 0D1A                     l1937 0D0C                     l1971 0D45  
                   l1963 0D3E                     l1955 0D2C                     l1947 0D21  
                   l1939 0D10                     l1981 0D59                     l1973 0D47  
                   l1965 0D42                     l1957 0D2D                     l1949 0D24  
                   l1991 0D60                     l1983 0D5C                     l1975 0D51  
                   l1967 0D43                     l1959 0D2F                     l1985 0D5D  
                   l1977 0D57                     l1969 0D44                     l1987 0D5E  
                   l1979 0D58                     l1989 0D5F                     ?_isr 0070  
                   u2850 0D4C                     u2851 0D4B                     i1l62 0CE7  
                   i1l65 0D01                     i1l82 0F45                     i1l87 0DF7  
                   _main 07E3                     btemp 007E                     start 0010  
        ___fldiv@new_exp 0032                    ??_isr 00AF            ___fltol@sign1 006C  
        __end_of___fladd 0606                    ?_main 0070          __end_of___fldiv 07E3  
        __end_of___flmul 037E          __end_of___fltol 0E94                    _ANSEL 0188  
                  i1l500 05D7                    i1l522 0662                    i1l508 05F9  
                  i1l524 07E2                    i1l620 0FD5                    i1l612 0FAD  
                  i1l509 0605                    i1l470 0488                    i1l366 0E7E  
                  i1l606 0F68                    i1l359 0E93                    i1l472 045F  
                  i1l544 07C6                    i1l608 0FFF                    i1l369 0E93  
                  i1l466 03E1                    i1l546 07D6                    i1l538 0754  
                  i1l562 037D                    i1l491 0577                    i1l619 0FC9  
                  i1l581 0CB6                    i1l574 0371                    i1l487 0553  
                  i1l479 0605                    i1l583 0CC8                    i1l568 02E9  
                  i1l497 0599                    _PORTA 0005                    _PORTC 0007  
                  _PORTD 0008                    _TRISA 0085                    _TRISC 0087  
                  _TRISD 0088                    _setup 0D0C                    pclath 000A  
                  status 0003                    wtemp0 007E          __initialization 0013  
           __end_of_main 07EC                   ??_main 00B4                   _CCPR1L 0015  
                 _CCPR2L 001B                   _CCPR_1 00B6                   _CCPR_2 00B4  
                 ?_setup 0070                   _ANSELH 0189                   i1l2001 0CEB  
                 i1l2003 0CF4                   i1l2005 0CFE                   i1l1401 038F  
                 i1l1411 03A3                   i1l1403 0390                   i1l1501 04B1  
                 i1l1421 03B9                   i1l1405 0395                   i1l1413 03A5  
                 i1l1511 04C8                   i1l1503 04B5                   i1l1431 03CE  
                 i1l1423 03BF                   i1l1415 03AD                   i1l1407 039A  
                 i1l1351 0CB0                   u200_20 05E1                   u200_21 05E0  
                 i1l1521 052B                   i1l1513 04C9                   i1l1505 04B9  
                 i1l1441 03EB                   i1l1433 03D6                   i1l1425 03C3  
                 i1l1417 03B2                   i1l1409 03A2                   i1l1601 0622  
                 i1l1353 0CBF                   i1l1345 0CA3                   i1l1361 0E09  
                 i1l1531 0560                   i1l1523 0531                   i1l1515 04D2  
                 i1l1507 04C2                   i1l1451 03FF                   i1l1443 03EF  
                 i1l1435 03D7                   i1l1427 03C4                   i1l1419 03B8  
                 i1l1611 063A                   i1l1603 062A                   i1l1355 0CC4  
                 i1l1347 0CA5                   i1l1371 0E40                   i1l1541 057B  
                 i1l1525 0536                   i1l1509 04C4                   i1l1517 04D7  
                 i1l1461 0413                   i1l1453 0403                   i1l1445 03F3  
                 i1l1429 03C9                   i1l1437 03D9                   i1l1701 075E  
                 i1l1621 064F                   i1l1613 0640                   i1l1605 062B  
                 i1l1349 0CAC                   i1l1381 0E4E                   i1l1373 0E42  
                 i1l1365 0E12                   i1l1543 057E                   i1l1535 0569  
                 i1l1519 04ED                   i1l1527 0545                   i1l1551 058B  
                 i1l1471 0427                   i1l1463 0417                   i1l1455 0407  
                 i1l1447 03F7                   i1l1439 03E7                   i1l1711 079C  
                 i1l1703 076C                   i1l1631 0676                   i1l1623 0657  
                 i1l1615 0644                   i1l1607 062D                   i1l1391 0E83  
                 i1l1375 0E46                   i1l1383 0E64                   i1l1367 0E37  
                 i1l1359 0DF8                   u201_20 05EE                   u201_21 05ED  
                 i1l1561 059E                   i1l1553 058C                   i1l1545 0580  
                 i1l1537 0572                   i1l1529 055B                   i1l1481 046C  
                 i1l1465 041B                   i1l1457 040B                   i1l1449 03FB  
                 i1l1473 042B                   i1l1721 07CC                   i1l1713 07AA  
                 i1l1705 0770                   i1l1633 067A                   i1l1625 0658  
                 i1l1617 0645                   i1l1609 0635                   i1l1801 01C0  
                 i1l1393 0E88                   i1l1369 0E38                   i1l1571 05DC  
                 i1l1563 05A3                   i1l1555 0590                   i1l1547 0585  
                 i1l1539 0576                   i1l1483 046E                   i1l1491 0480  
                 i1l1475 042C                   i1l1467 041F                   i1l1459 040F  
                 i1l1395 037E                   i1l1723 07D0                   i1l1715 07B9  
                 i1l1707 0789                   i1l1651 06BB                   i1l1643 0691  
                 i1l1619 064A                   i1l1627 065A                   i1l1811 026D  
                 i1l1803 01DD                   i1l1731 001D                   i1l1581 05F3  
                 i1l1573 05E1                   i1l1565 05B1                   i1l1557 0596  
                 i1l1549 0587                   i1l1493 048C                   i1l1485 0472  
                 i1l1477 0443                   i1l1469 0423                   i1l1397 0385  
                 i1l1725 07D2                   i1l1717 07BD                   i1l1709 078F  
                 i1l1661 06D9                   i1l1653 06BD                   i1l1645 06A3  
                 i1l1629 066A                   i1l1637 0683                   i1l1821 02B9  
                 i1l1813 0295                   i1l1805 020A                   i1l1741 0034  
                 i1l1733 0024                   i1l1389 0E6B                   i1l1901 0FCD  
                 i1l1583 05F5                   i1l1575 05E9                   i1l1567 05B5  
                 i1l1495 0491                   i1l1487 0473                   i1l1479 0463  
                 i1l1399 038B                   i1l1719 07C5                   i1l1655 06C2  
                 i1l1663 06E2                   i1l1671 0707                   i1l1647 06AB  
                 i1l1639 0688                   i1l1591 060D                   i1l1831 02CE  
                 i1l1823 02BA                   i1l1815 029E                   i1l1807 021A  
                 i1l1751 0050                   i1l1743 0039                   i1l1735 002A  
                 i1l1911 0FF7                   i1l1903 0FD7                   u202_20 05F3  
                 u210_20 066A                   i1l1585 0600                   u202_21 05F2  
                 i1l1577 05EE                   i1l1569 05D3                   i1l1489 047C  
                 i1l1681 0724                   i1l1673 070D                   i1l1665 06F4  
                 i1l1657 06D4                   i1l1649 06B3                   u210_21 0669  
                 i1l1593 0613                   i1l1841 02F3                   i1l1833 02D2  
                 i1l1825 02C3                   i1l1817 02AC                   i1l1809 0247  
                 i1l1761 0065                   i1l1753 0056                   i1l1745 0041  
                 i1l1737 002E                   i1l1905 0FED                   i1l1921 0D6C  
                 i1l1587 0604                   i1l1579 05EF                   i1l1499 049A  
                 i1l1691 0739                   i1l1683 0725                   i1l1675 0715  
                 i1l1667 06F5                   i1l1659 06D8                   i1l1595 0617  
                 i1l1851 0331                   i1l1843 0301                   i1l1835 02E6  
                 i1l1819 02B5                   i1l1827 02C9                   i1l1771 0081  
                 i1l1763 006D                   i1l1755 005A                   i1l1747 0043  
                 i1l1739 002F                   i1l1907 0FF2                   i1l1915 0E97  
                 i1l1931 0DD4                   i1l1923 0D89                   i1l1693 073D  
                 i1l1685 072E                   i1l1677 0717                   i1l1669 0703  
                 i1l1597 0618                   i1l1589 0606                   i1l1861 0365  
                 i1l1853 033C                   i1l1845 0305                   i1l1829 02CD  
                 i1l1781 00C4                   i1l1765 006F                   i1l1757 005B  
                 i1l1749 004B                   i1l1909 0FF6                   i1l1933 0DE5  
                 i1l1925 0D97                   i1l1695 0751                   i1l1679 0720  
                 i1l1687 0734                   i1l1599 061D                   i1l1863 0369  
                 i1l1855 034B                   i1l1847 031E                   i1l1839 02EE  
                 i1l1791 014D                   i1l1783 00E0                   i1l1775 008A  
                 i1l1767 0077                   i1l1759 0060                   i1l1871 0F47  
                 i1l1927 0DA9                   i1l1919 0D67                   u203_20 0604  
                 u211_20 0688                   u203_21 0603                   i1l1689 0738  
                 u211_21 0687                   i1l1865 036A                   i1l1857 0355  
                 i1l1849 0324                   i1l1793 015D                   i1l1785 010C  
                 i1l1777 009A                   i1l1769 007C                   i1l1873 0F4C  
                 i1l1929 0DC6                   i1l1699 0759                   i1l1867 0375  
                 i1l1859 0357                   i1l1795 017A                   i1l1787 0128  
                 i1l1779 00A7                   i1l1891 0F96                   i1l1883 0F79  
                 i1l1875 0F50                   i1l1797 018A                   i1l1789 0144  
                 i1l1893 0FA4                   i1l1885 0F7E                   i1l1877 0F60  
                 i1l1799 01A7                   i1l1895 0FB4                   i1l1887 0F8B  
                 i1l1879 0F70                   u212_20 06C2                   u204_20 0617  
                 u212_21 06C1                   u204_21 0616                   i1l1897 0FBF  
                 i1l1889 0F92                   i1l1993 0CC9                   i1l1899 0FC3  
                 i1l1995 0CCF                   u220_25 0719                   i1l1997 0CD3  
                 i1l1999 0CDC                   u221_20 0724                   u205_20 061D  
                 u221_21 0723                   u205_21 061C                   u213_25 06C4  
                 u230_20 079C                   u206_20 0622                   u150_20 0E46  
                 u230_21 079B                   u206_21 0621                   u150_21 0E45  
                 u230_25 0798                   u222_25 0727                   u214_25 06CD  
                 u231_20 07B9                   u223_20 0738                   u215_20 06D8  
                 u207_20 0644                   u151_20 0E4D                   u231_21 07B8  
                 u223_21 0737                   u215_21 06D7                   u207_21 0643  
                 u151_21 0E4C                   u231_25 07B5                   u160_20 039A  
                 u232_20 07D0                   u224_20 073D                   u208_20 064A  
                 u240_20 0081                   u160_21 0399                   u232_21 07CF  
                 u224_21 073C                   u208_21 0649                   u240_21 0080  
                 u216_25 06DB                   u152_25 0E4F                   u161_20 03B8  
                 u225_20 0751                   u217_20 06F4                   u209_20 064F  
                 u145_20 0CB0                   u233_20 002E                   u153_20 0E63  
                 u161_21 03B7                   u225_21 0750                   u217_21 06F3  
                 u209_21 064E                   u145_21 0CAF                   u241_21 00D2  
                 u233_21 002D                   u153_21 0E62                   u241_22 00D9  
                 u241_23 00E0                   u217_25 06F0                   u170_20 0463  
                 u162_20 03C3                   u226_20 0758                   u218_20 070D  
                 u234_20 0034                   u154_20 0E6A                   u170_21 0462  
                 u162_21 03C2                   u226_21 0757                   u218_21 070C  
                 u250_21 01FC                   u242_21 00EE                   u234_21 0033  
                 u154_21 0E69                   u250_22 0203                   u242_22 00F5  
                 u250_23 020A                   u242_23 00FC                   u146_25 0CB7  
                 u171_20 0472                   u163_20 03C9                   u227_20 075E  
                 u219_20 0715                   u147_20 0CC4                   u235_20 0039  
                 u171_21 0471                   u163_21 03C8                   u227_21 075D  
                 u219_21 0714                   u147_21 0CC3                   u251_21 0229  
                 u243_21 011A                   u235_21 0038                   u251_22 0230  
                 u243_22 0121                   u251_23 0237                   u243_23 0128  
                 u155_25 0E6F                   u164_20 03CE                   u228_20 0770  
                 u260_20 02CD                   u252_20 0253                   u236_20 005A  
                 u156_20 0E83                   u148_20 0E09                   u164_21 03CD  
                 u228_21 076F                   u260_21 02CC                   u244_21 0136  
                 u236_21 0059                   u156_21 0E82                   u148_21 0E08  
                 u244_22 013D                   u244_23 0144                   u180_25 04CB  
                 u172_25 0475                   u252_25 024E                   u181_20 04ED  
                 u173_20 0488                   u165_20 03E7                   u229_20 077F  
                 u261_20 02D2                   u237_20 0060                   u157_20 0E88  
                 u149_20 0E2E                   u181_21 04EC                   u173_21 0487  
                 u165_21 03E6                   u261_21 02D1                   u253_21 025F  
                 u237_21 005F                   u157_21 0E87                   u253_22 0266  
                 u181_23 04E9                   u253_23 026D                   u229_25 077A  
                 u245_25 0146                   u149_25 0E29                   u190_20 0585  
                 u174_20 048C                   u166_20 03EB                   u158_20 038F  
                 u262_20 02E6                   u254_20 027B                   u238_20 0065  
                 u270_20 0F4C                   u190_21 0584                   u182_21 0504  
                 u174_21 048B                   u166_21 03EA                   u158_21 038E  
                 u262_21 02E5                   u246_21 016C                   u238_21 0064  
                 u270_21 0F4B                   u182_22 0505                   u246_22 0173  
                 u182_23 050A                   u246_23 017A                   u182_24 050B  
                 u182_25 0510                   u254_25 0276                   u182_26 0511  
                 u191_20 058B                   u183_20 0518                   u175_20 0491  
                 u167_20 0443                   u159_20 0395                   u263_20 02ED  
                 u239_20 007C                   u271_20 0F50                   u191_21 058A  
                 u183_21 0519                   u175_21 0490                   u167_21 0442  
                 u159_21 0394                   u263_21 02EC                   u255_21 0287  
                 u247_21 0199                   u239_21 007B                   u271_21 0F4F  
                 u183_22 051E                   u255_22 028E                   u247_22 01A0  
                 u183_23 051F                   u255_23 0295                   u247_23 01A7  
                 u167_25 043F                   u192_20 0590                   u184_20 0536  
                 u168_20 044E                   u264_20 02F3                   u280_20 0FCD  
                 u272_20 0F70                   u192_21 058F                   u184_21 0535  
                 u176_21 04A3                   u168_21 044C                   u264_21 02F2  
                 u280_21 0FCC                   u272_21 0F6F                   u176_22 04AA  
                 u176_23 04B1                   u256_25 0297                   u248_25 01A9  
                 u193_20 0596                   u185_20 055B                   u177_20 04B5  
                 u169_20 044F                   u265_20 0305                   u281_20 0FE2  
                 u193_21 0595                   u185_21 055A                   u177_21 04B4  
                 u265_21 0304                   u249_21 01CF                   u249_22 01D6  
                 u249_23 01DD                   u257_25 02AE                   u281_25 0FDD  
                 u273_25 0F83                   u194_20 059D                   u186_20 0560  
                 u178_20 04B9                   u266_20 0314                   u258_20 02B9  
                 u282_20 0FF2                   u274_20 0F91                   u194_21 059C  
                 u186_21 055F                   u178_21 04B8                   u258_21 02B8  
                 u282_21 0FF1                   u274_21 0F90                   u266_25 030F  
                 u195_20 05A3                   u179_20 04C8                   u267_20 0331  
                 u283_20 0FF6                   u195_21 05A2                   u179_21 04C7  
                 u267_21 0330                   u283_21 0FF5                   u187_25 056B  
                 u267_25 032D                   u259_25 02BC                   u275_25 0FA5  
                 u196_20 05B5                   u188_20 0576                   u268_20 034B  
                 u276_20 0FB3                   u284_20 0D6C                   u196_21 05B4  
                 u188_21 0575                   u268_21 034A                   u276_21 0FB2  
                 u284_21 0D6B                   u268_25 0347                   u197_20 05C4  
                 u189_20 057B                   u269_20 0369                   u189_21 057A  
                 u269_21 0368                   u197_25 05BF                   u277_25 0FB8  
                 u198_20 05D3                   u278_20 0FC3                   u286_20 0CCF  
                 u198_21 05D2                   u278_21 0FC2                   u286_21 0CCE  
                 u199_20 05DC                   u279_20 0FC9                   u287_20 0CD3  
                 u199_21 05DB                   u279_21 0FC8                   u287_21 0CD2  
                 u288_20 0CEB                   u288_21 0CEA                   _SSPBUF 0013  
       __end_of___xxtofl 1000                ??___fladd 005C                ??___fldiv 0028  
              ??___flmul 0042                ??___fltol 00A0                   saved_w 007E  
           ___xxtofl@arg 007A             ___xxtofl@exp 0079             ___xxtofl@val 0070  
__end_of__initialization 0019               ___fltol@f1 0068           __pcstackCOMMON 0070  
          __end_of_setup 0D64                  ??_setup 00B4               __pbssBANK1 00B4  
      __end_of__Umul8_16 0CC9               __pmaintext 07E3               __pintentry 0004  
                _CCP1CON 0017                ?___xxtofl 0070           interpole@value 006E  
                ___fladd 037E                  ___fldiv 0606                  ___flmul 001D  
                ___fltol 0DF8                  __ptext1 0D0C                  __ptext2 0CC9  
                __ptext3 0D64                  __ptext4 0E94                  __ptext5 0F46  
                __ptext6 0DF8                  __ptext7 001D                  __ptext8 0CA2  
                __ptext9 0606                _T2CONbits 0012               ??___xxtofl 0074  
         move_servo@CCPR 00AB        __end_of_interpole 0F46     end_of_initialization 0019  
             _move_servo 0D64                _PORTAbits 0005              ___fladd@grs 0067  
          ___xxtofl@sign 0078                _TRISCbits 0087              ___fldiv@grs 0034  
            ___fldiv@rem 002D              ___flmul@grs 0048              _CCP1CONbits 0017  
            _CCP2CONbits 001D         interpole@out_max 00A9         interpole@out_min 00A7  
    start_initialization 0013              __end_of_isr 0D0C              ?_move_servo 00AB  
              __Umul8_16 0CA2                ___fladd@a 0058                ___fladd@b 0054  
              ___fldiv@a 0020                ___fldiv@b 0024                ___flmul@a 003E  
              ___flmul@b 003A                ___latbits 0002            __pcstackBANK0 0020  
          __pcstackBANK1 00A0                 ?___fladd 0054                 ?___fldiv 0020  
               ?___flmul 003A                 ?___fltol 0068               ?__Umul8_16 0070  
              _interpole 0E94        interrupt_function 0004                 _PIE1bits 008C  
               _PIR1bits 000C          interpole@in_max 00A6          interpole@in_min 00A5  
             ?_interpole 00A5              ??__Umul8_16 0072                 ___xxtofl 0F46  
               __ptext10 037E             ??_move_servo 00AD          move_servo@servo 006F  
             _INTCONbits 000B       __end_of_move_servo 0DF8                 intlevel1 0000  
            ??_interpole 007E               _OSCCONbits 008F   __Umul8_16@multiplicand 0070  
          ___fladd@signs 0064             ___fladd@aexp 0065             ___fladd@bexp 0066  
   __Umul8_16@multiplier 0078               _SSPCONbits 0014        __Umul8_16@product 0074  
